ccopy_reg
_reconstructor
p0
(csave_restore_layout.save_restore_layout
LayoutData
p1
c__builtin__
tuple
p2
(V(kicad_pcb (version 20171130) (host pcbnew 5.1.5+dfsg1-2build2)\u000a\u000a  (general\u000a    (thickness 1.6)\u000a    (drawings 0)\u000a    (tracks 119)\u000a    (zones 0)\u000a    (modules 14)\u000a    (nets 32)\u000a  )\u000a\u000a  (page A4)\u000a  (layers\u000a    (0 F.Cu signal)\u000a    (31 B.Cu signal)\u000a    (32 B.Adhes user)\u000a    (33 F.Adhes user)\u000a    (34 B.Paste user)\u000a    (35 F.Paste user)\u000a    (36 B.SilkS user)\u000a    (37 F.SilkS user)\u000a    (38 B.Mask user)\u000a    (39 F.Mask user)\u000a    (40 Dwgs.User user)\u000a    (41 Cmts.User user)\u000a    (42 Eco1.User user)\u000a    (43 Eco2.User user)\u000a    (44 Edge.Cuts user)\u000a    (45 Margin user)\u000a    (46 B.CrtYd user)\u000a    (47 F.CrtYd user)\u000a    (48 B.Fab user hide)\u000a    (49 F.Fab user hide)\u000a  )\u000a\u000a  (setup\u000a    (last_trace_width 0.25)\u000a    (trace_clearance 0.2)\u000a    (zone_clearance 0.508)\u000a    (zone_45_only no)\u000a    (trace_min 0.2)\u000a    (via_size 0.8)\u000a    (via_drill 0.4)\u000a    (via_min_size 0.4)\u000a    (via_min_drill 0.3)\u000a    (uvia_size 0.3)\u000a    (uvia_drill 0.1)\u000a    (uvias_allowed no)\u000a    (uvia_min_size 0.2)\u000a    (uvia_min_drill 0.1)\u000a    (edge_width 0.05)\u000a    (segment_width 0.2)\u000a    (pcb_text_width 0.3)\u000a    (pcb_text_size 1.5 1.5)\u000a    (mod_edge_width 0.12)\u000a    (mod_text_size 0.6 0.6)\u000a    (mod_text_width 0.1)\u000a    (pad_size 1.524 1.524)\u000a    (pad_drill 0.762)\u000a    (pad_to_mask_clearance 0.051)\u000a    (solder_mask_min_width 0.25)\u000a    (aux_axis_origin 0 0)\u000a    (visible_elements FFFFFF7F)\u000a    (pcbplotparams\u000a      (layerselection 0x010fc_ffffffff)\u000a      (usegerberextensions false)\u000a      (usegerberattributes false)\u000a      (usegerberadvancedattributes false)\u000a      (creategerberjobfile false)\u000a      (excludeedgelayer true)\u000a      (linewidth 0.100000)\u000a      (plotframeref false)\u000a      (viasonmask false)\u000a      (mode 1)\u000a      (useauxorigin false)\u000a      (hpglpennumber 1)\u000a      (hpglpenspeed 20)\u000a      (hpglpendiameter 15.000000)\u000a      (psnegative false)\u000a      (psa4output false)\u000a      (plotreference true)\u000a      (plotvalue true)\u000a      (plotinvisibletext false)\u000a      (padsonsilk false)\u000a      (subtractmaskfromsilk false)\u000a      (outputformat 1)\u000a      (mirror false)\u000a      (drillshape 1)\u000a      (scaleselection 1)\u000a      (outputdirectory ""))\u000a  )\u000a\u000a  (net 0 "")\u000a  (net 1 GND)\u000a  (net 2 +5V)\u000a  (net 3 "Net-(C203-Pad2)")\u000a  (net 4 "Net-(C204-Pad2)")\u000a  (net 5 /Sheet6074414D/can_l)\u000a  (net 6 /Sheet6074414D/can_h)\u000a  (net 7 "Net-(J201-Pad6)")\u000a  (net 8 "Net-(J201-Pad5)")\u000a  (net 9 "Net-(J201-Pad4)")\u000a  (net 10 "Net-(J201-Pad3)")\u000a  (net 11 "Net-(J201-Pad2)")\u000a  (net 12 "Net-(J201-Pad1)")\u000a  (net 13 "Net-(R201-Pad2)")\u000a  (net 14 "Net-(R202-Pad1)")\u000a  (net 15 "Net-(U202-Pad5)")\u000a  (net 16 /Sheet6074414D/can_rx)\u000a  (net 17 /Sheet6074414D/can_tx)\u000a  (net 18 /Sheet6074414D/can_spi_cs)\u000a  (net 19 /Sheet6074414D/can_spi_miso)\u000a  (net 20 /Sheet6074414D/can_spi_mosi)\u000a  (net 21 "Net-(U203-Pad15)")\u000a  (net 22 /Sheet6074414D/can_spi_clk)\u000a  (net 23 /Sheet6074414D/can_intr)\u000a  (net 24 "Net-(U203-Pad12)")\u000a  (net 25 "Net-(U203-Pad11)")\u000a  (net 26 "Net-(U203-Pad7)")\u000a  (net 27 "Net-(U203-Pad6)")\u000a  (net 28 "Net-(U203-Pad5)")\u000a  (net 29 "Net-(U203-Pad4)")\u000a  (net 30 "Net-(U203-Pad3)")\u000a  (net 31 "Net-(JP201-Pad1)")\u000a\u000a  (net_class Default "This is the default net class."\u000a    (clearance 0.2)\u000a    (trace_width 0.25)\u000a    (via_dia 0.8)\u000a    (via_drill 0.4)\u000a    (uvia_dia 0.3)\u000a    (uvia_drill 0.1)\u000a    (add_net +5V)\u000a    (add_net /Sheet6074414D/can_h)\u000a    (add_net /Sheet6074414D/can_intr)\u000a    (add_net /Sheet6074414D/can_l)\u000a    (add_net /Sheet6074414D/can_rx)\u000a    (add_net /Sheet6074414D/can_spi_clk)\u000a    (add_net /Sheet6074414D/can_spi_cs)\u000a    (add_net /Sheet6074414D/can_spi_miso)\u000a    (add_net /Sheet6074414D/can_spi_mosi)\u000a    (add_net /Sheet6074414D/can_tx)\u000a    (add_net GND)\u000a    (add_net "Net-(C203-Pad2)")\u000a    (add_net "Net-(C204-Pad2)")\u000a    (add_net "Net-(J201-Pad1)")\u000a    (add_net "Net-(J201-Pad2)")\u000a    (add_net "Net-(J201-Pad3)")\u000a    (add_net "Net-(J201-Pad4)")\u000a    (add_net "Net-(J201-Pad5)")\u000a    (add_net "Net-(J201-Pad6)")\u000a    (add_net "Net-(JP201-Pad1)")\u000a    (add_net "Net-(R201-Pad2)")\u000a    (add_net "Net-(R202-Pad1)")\u000a    (add_net "Net-(U202-Pad5)")\u000a    (add_net "Net-(U203-Pad11)")\u000a    (add_net "Net-(U203-Pad12)")\u000a    (add_net "Net-(U203-Pad15)")\u000a    (add_net "Net-(U203-Pad3)")\u000a    (add_net "Net-(U203-Pad4)")\u000a    (add_net "Net-(U203-Pad5)")\u000a    (add_net "Net-(U203-Pad6)")\u000a    (add_net "Net-(U203-Pad7)")\u000a  )\u000a\u000a  (module Resistor_SMD:R_0603_1608Metric_Pad1.05x0.95mm_HandSolder (layer F.Cu) (tedit 5B301BBD) (tstamp 6072AE9C)\u000a    (at 129.84 50.895 90)\u000a    (descr "Resistor SMD 0603 (1608 Metric), square (rectangular) end terminal, IPC_7351 nominal with elongated pad for handsoldering. (Body size source: http://www.tortai-tech.com/upload/download/2011102023233369053.pdf), generated with kicad-footprint-generator")\u000a    (tags "resistor handsolder")\u000a    (path /6074414E/6075A4C5)\u000a    (attr smd)\u000a    (fp_text reference R203 (at 0.075 1.5 90) (layer F.SilkS)\u000a      (effects (font (size 0.6 0.6) (thickness 0.15)))\u000a    )\u000a    (fp_text value 120R (at 0 1.43 90) (layer F.Fab)\u000a      (effects (font (size 1 1) (thickness 0.15)))\u000a    )\u000a    (fp_text user %R (at 0 0 90) (layer F.Fab)\u000a      (effects (font (size 0.4 0.4) (thickness 0.06)))\u000a    )\u000a    (fp_line (start 1.65 0.73) (end -1.65 0.73) (layer F.CrtYd) (width 0.05))\u000a    (fp_line (start 1.65 -0.73) (end 1.65 0.73) (layer F.CrtYd) (width 0.05))\u000a    (fp_line (start -1.65 -0.73) (end 1.65 -0.73) (layer F.CrtYd) (width 0.05))\u000a    (fp_line (start -1.65 0.73) (end -1.65 -0.73) (layer F.CrtYd) (width 0.05))\u000a    (fp_line (start -0.171267 0.51) (end 0.171267 0.51) (layer F.SilkS) (width 0.12))\u000a    (fp_line (start -0.171267 -0.51) (end 0.171267 -0.51) (layer F.SilkS) (width 0.12))\u000a    (fp_line (start 0.8 0.4) (end -0.8 0.4) (layer F.Fab) (width 0.1))\u000a    (fp_line (start 0.8 -0.4) (end 0.8 0.4) (layer F.Fab) (width 0.1))\u000a    (fp_line (start -0.8 -0.4) (end 0.8 -0.4) (layer F.Fab) (width 0.1))\u000a    (fp_line (start -0.8 0.4) (end -0.8 -0.4) (layer F.Fab) (width 0.1))\u000a    (pad 2 smd roundrect (at 0.875 0 90) (size 1.05 0.95) (layers F.Cu F.Paste F.Mask) (roundrect_rratio 0.25)\u000a      (net 5 /Sheet6074414D/can_l))\u000a    (pad 1 smd roundrect (at -0.875 0 90) (size 1.05 0.95) (layers F.Cu F.Paste F.Mask) (roundrect_rratio 0.25)\u000a      (net 31 "Net-(JP201-Pad1)"))\u000a    (model ${KISYS3DMOD}/Resistor_SMD.3dshapes/R_0603_1608Metric.wrl\u000a      (at (xyz 0 0 0))\u000a      (scale (xyz 1 1 1))\u000a      (rotate (xyz 0 0 0))\u000a    )\u000a  )\u000a\u000a  (module Jumper:SolderJumper-2_P1.3mm_Open_TrianglePad1.0x1.5mm (layer F.Cu) (tedit 5A64794F) (tstamp 6072AE4B)\u000a    (at 129.8 54.785 270)\u000a    (descr "SMD Solder Jumper, 1x1.5mm Triangular Pads, 0.3mm gap, open")\u000a    (tags "solder jumper open")\u000a    (path /6074414E/6075D5CD)\u000a    (attr virtual)\u000a    (fp_text reference termination (at 0 -1.8 90) (layer F.SilkS)\u000a      (effects (font (size 0.6 0.6) (thickness 0.1)))\u000a    )\u000a    (fp_text value termination (at 0 1.9 90) (layer F.Fab)\u000a      (effects (font (size 1 1) (thickness 0.15)))\u000a    )\u000a    (fp_line (start 1.65 1.25) (end -1.65 1.25) (layer F.CrtYd) (width 0.05))\u000a    (fp_line (start 1.65 1.25) (end 1.65 -1.25) (layer F.CrtYd) (width 0.05))\u000a    (fp_line (start -1.65 -1.25) (end -1.65 1.25) (layer F.CrtYd) (width 0.05))\u000a    (fp_line (start -1.65 -1.25) (end 1.65 -1.25) (layer F.CrtYd) (width 0.05))\u000a    (fp_line (start -1.4 -1) (end 1.4 -1) (layer F.SilkS) (width 0.12))\u000a    (fp_line (start 1.4 -1) (end 1.4 1) (layer F.SilkS) (width 0.12))\u000a    (fp_line (start 1.4 1) (end -1.4 1) (layer F.SilkS) (width 0.12))\u000a    (fp_line (start -1.4 1) (end -1.4 -1) (layer F.SilkS) (width 0.12))\u000a    (pad 1 smd custom (at -0.725 0 270) (size 0.3 0.3) (layers F.Cu F.Mask)\u000a      (net 31 "Net-(JP201-Pad1)") (zone_connect 2)\u000a      (options (clearance outline) (anchor rect))\u000a      (primitives\u000a        (gr_poly (pts\u000a           (xy -0.5 -0.75) (xy 0.5 -0.75) (xy 1 0) (xy 0.5 0.75) (xy -0.5 0.75)\u000a) (width 0))\u000a      ))\u000a    (pad 2 smd custom (at 0.725 0 270) (size 0.3 0.3) (layers F.Cu F.Mask)\u000a      (net 6 /Sheet6074414D/can_h) (zone_connect 2)\u000a      (options (clearance outline) (anchor rect))\u000a      (primitives\u000a        (gr_poly (pts\u000a           (xy -0.65 -0.75) (xy 0.5 -0.75) (xy 0.5 0.75) (xy -0.65 0.75) (xy -0.15 0)\u000a) (width 0))\u000a      ))\u000a  )\u000a\u000a  (module Package_SO:TSSOP-20_4.4x6.5mm_P0.65mm (layer F.Cu) (tedit 5A02F25C) (tstamp 60729EC9)\u000a    (at 114.12 37.655)\u000a    (descr "20-Lead Plastic Thin Shrink Small Outline (ST)-4.4 mm Body [TSSOP] (see Microchip Packaging Specification 00000049BS.pdf)")\u000a    (tags "SSOP 0.65")\u000a    (path /6074414E/6074BAAC)\u000a    (attr smd)\u000a    (fp_text reference U203 (at -0.76 -4.235) (layer F.SilkS)\u000a      (effects (font (size 0.6 0.6) (thickness 0.1)))\u000a    )\u000a    (fp_text value MCP2515-xST (at 0 4.3) (layer F.Fab)\u000a      (effects (font (size 1 1) (thickness 0.15)))\u000a    )\u000a    (fp_text user %R (at 0 0) (layer F.Fab)\u000a      (effects (font (size 1 1) (thickness 0.15)))\u000a    )\u000a    (fp_line (start -3.75 -3.45) (end 2.225 -3.45) (layer F.SilkS) (width 0.15))\u000a    (fp_line (start -2.225 3.45) (end 2.225 3.45) (layer F.SilkS) (width 0.15))\u000a    (fp_line (start -3.95 3.55) (end 3.95 3.55) (layer F.CrtYd) (width 0.05))\u000a    (fp_line (start -3.95 -3.55) (end 3.95 -3.55) (layer F.CrtYd) (width 0.05))\u000a    (fp_line (start 3.95 -3.55) (end 3.95 3.55) (layer F.CrtYd) (width 0.05))\u000a    (fp_line (start -3.95 -3.55) (end -3.95 3.55) (layer F.CrtYd) (width 0.05))\u000a    (fp_line (start -2.2 -2.25) (end -1.2 -3.25) (layer F.Fab) (width 0.15))\u000a    (fp_line (start -2.2 3.25) (end -2.2 -2.25) (layer F.Fab) (width 0.15))\u000a    (fp_line (start 2.2 3.25) (end -2.2 3.25) (layer F.Fab) (width 0.15))\u000a    (fp_line (start 2.2 -3.25) (end 2.2 3.25) (layer F.Fab) (width 0.15))\u000a    (fp_line (start -1.2 -3.25) (end 2.2 -3.25) (layer F.Fab) (width 0.15))\u000a    (pad 20 smd rect (at 2.95 -2.925) (size 1.45 0.45) (layers F.Cu F.Paste F.Mask)\u000a      (net 2 +5V))\u000a    (pad 19 smd rect (at 2.95 -2.275) (size 1.45 0.45) (layers F.Cu F.Paste F.Mask)\u000a      (net 14 "Net-(R202-Pad1)"))\u000a    (pad 18 smd rect (at 2.95 -1.625) (size 1.45 0.45) (layers F.Cu F.Paste F.Mask)\u000a      (net 18 /Sheet6074414D/can_spi_cs))\u000a    (pad 17 smd rect (at 2.95 -0.975) (size 1.45 0.45) (layers F.Cu F.Paste F.Mask)\u000a      (net 19 /Sheet6074414D/can_spi_miso))\u000a    (pad 16 smd rect (at 2.95 -0.325) (size 1.45 0.45) (layers F.Cu F.Paste F.Mask)\u000a      (net 20 /Sheet6074414D/can_spi_mosi))\u000a    (pad 15 smd rect (at 2.95 0.325) (size 1.45 0.45) (layers F.Cu F.Paste F.Mask)\u000a      (net 21 "Net-(U203-Pad15)"))\u000a    (pad 14 smd rect (at 2.95 0.975) (size 1.45 0.45) (layers F.Cu F.Paste F.Mask)\u000a      (net 22 /Sheet6074414D/can_spi_clk))\u000a    (pad 13 smd rect (at 2.95 1.625) (size 1.45 0.45) (layers F.Cu F.Paste F.Mask)\u000a      (net 23 /Sheet6074414D/can_intr))\u000a    (pad 12 smd rect (at 2.95 2.275) (size 1.45 0.45) (layers F.Cu F.Paste F.Mask)\u000a      (net 24 "Net-(U203-Pad12)"))\u000a    (pad 11 smd rect (at 2.95 2.925) (size 1.45 0.45) (layers F.Cu F.Paste F.Mask)\u000a      (net 25 "Net-(U203-Pad11)"))\u000a    (pad 10 smd rect (at -2.95 2.925) (size 1.45 0.45) (layers F.Cu F.Paste F.Mask)\u000a      (net 1 GND))\u000a    (pad 9 smd rect (at -2.95 2.275) (size 1.45 0.45) (layers F.Cu F.Paste F.Mask)\u000a      (net 4 "Net-(C204-Pad2)"))\u000a    (pad 8 smd rect (at -2.95 1.625) (size 1.45 0.45) (layers F.Cu F.Paste F.Mask)\u000a      (net 3 "Net-(C203-Pad2)"))\u000a    (pad 7 smd rect (at -2.95 0.975) (size 1.45 0.45) (layers F.Cu F.Paste F.Mask)\u000a      (net 26 "Net-(U203-Pad7)"))\u000a    (pad 6 smd rect (at -2.95 0.325) (size 1.45 0.45) (layers F.Cu F.Paste F.Mask)\u000a      (net 27 "Net-(U203-Pad6)"))\u000a    (pad 5 smd rect (at -2.95 -0.325) (size 1.45 0.45) (layers F.Cu F.Paste F.Mask)\u000a      (net 28 "Net-(U203-Pad5)"))\u000a    (pad 4 smd rect (at -2.95 -0.975) (size 1.45 0.45) (layers F.Cu F.Paste F.Mask)\u000a      (net 29 "Net-(U203-Pad4)"))\u000a    (pad 3 smd rect (at -2.95 -1.625) (size 1.45 0.45) (layers F.Cu F.Paste F.Mask)\u000a      (net 30 "Net-(U203-Pad3)"))\u000a    (pad 2 smd rect (at -2.95 -2.275) (size 1.45 0.45) (layers F.Cu F.Paste F.Mask)\u000a      (net 16 /Sheet6074414D/can_rx))\u000a    (pad 1 smd rect (at -2.95 -2.925) (size 1.45 0.45) (layers F.Cu F.Paste F.Mask)\u000a      (net 17 /Sheet6074414D/can_tx))\u000a    (model ${KISYS3DMOD}/Package_SO.3dshapes/TSSOP-20_4.4x6.5mm_P0.65mm.wrl\u000a      (at (xyz 0 0 0))\u000a      (scale (xyz 1 1 1))\u000a      (rotate (xyz 0 0 0))\u000a    )\u000a  )\u000a\u000a  (module Crystal:Crystal_SMD_HC49-SD (layer F.Cu) (tedit 5A1AD52C) (tstamp 60729E79)\u000a    (at 104.58 35.305 270)\u000a    (descr "SMD Crystal HC-49-SD http://cdn-reichelt.de/documents/datenblatt/B400/xxx-HC49-SMD.pdf, 11.4x4.7mm^2 package")\u000a    (tags "SMD SMT crystal")\u000a    (path /6074414E/6074BAC6)\u000a    (attr smd)\u000a    (fp_text reference Y201 (at -0.085 3.44 90) (layer F.SilkS)\u000a      (effects (font (size 1 1) (thickness 0.15)))\u000a    )\u000a    (fp_text value Crystal (at 0 3.55 90) (layer F.Fab)\u000a      (effects (font (size 1 1) (thickness 0.15)))\u000a    )\u000a    (fp_arc (start 3.015 0) (end 3.015 -2.115) (angle 180) (layer F.Fab) (width 0.1))\u000a    (fp_arc (start -3.015 0) (end -3.015 -2.115) (angle -180) (layer F.Fab) (width 0.1))\u000a    (fp_line (start 6.8 -2.6) (end -6.8 -2.6) (layer F.CrtYd) (width 0.05))\u000a    (fp_line (start 6.8 2.6) (end 6.8 -2.6) (layer F.CrtYd) (width 0.05))\u000a    (fp_line (start -6.8 2.6) (end 6.8 2.6) (layer F.CrtYd) (width 0.05))\u000a    (fp_line (start -6.8 -2.6) (end -6.8 2.6) (layer F.CrtYd) (width 0.05))\u000a    (fp_line (start -6.7 2.55) (end 5.9 2.55) (layer F.SilkS) (width 0.12))\u000a    (fp_line (start -6.7 -2.55) (end -6.7 2.55) (layer F.SilkS) (width 0.12))\u000a    (fp_line (start 5.9 -2.55) (end -6.7 -2.55) (layer F.SilkS) (width 0.12))\u000a    (fp_line (start -3.015 2.115) (end 3.015 2.115) (layer F.Fab) (width 0.1))\u000a    (fp_line (start -3.015 -2.115) (end 3.015 -2.115) (layer F.Fab) (width 0.1))\u000a    (fp_line (start 5.7 -2.35) (end -5.7 -2.35) (layer F.Fab) (width 0.1))\u000a    (fp_line (start 5.7 2.35) (end 5.7 -2.35) (layer F.Fab) (width 0.1))\u000a    (fp_line (start -5.7 2.35) (end 5.7 2.35) (layer F.Fab) (width 0.1))\u000a    (fp_line (start -5.7 -2.35) (end -5.7 2.35) (layer F.Fab) (width 0.1))\u000a    (fp_text user %R (at 0 0 90) (layer F.Fab)\u000a      (effects (font (size 1 1) (thickness 0.15)))\u000a    )\u000a    (pad 2 smd rect (at 4.25 0 270) (size 4.5 2) (layers F.Cu F.Paste F.Mask)\u000a      (net 4 "Net-(C204-Pad2)"))\u000a    (pad 1 smd rect (at -4.25 0 270) (size 4.5 2) (layers F.Cu F.Paste F.Mask)\u000a      (net 3 "Net-(C203-Pad2)"))\u000a    (model ${KISYS3DMOD}/Crystal.3dshapes/Crystal_SMD_HC49-SD.wrl\u000a      (at (xyz 0 0 0))\u000a      (scale (xyz 1 1 1))\u000a      (rotate (xyz 0 0 0))\u000a    )\u000a  )\u000a\u000a  (module Package_SO:SOIC-8_3.9x4.9mm_P1.27mm (layer F.Cu) (tedit 5D9F72B1) (tstamp 60723524)\u000a    (at 125.225 45.15 180)\u000a    (descr "SOIC, 8 Pin (JEDEC MS-012AA, https://www.analog.com/media/en/package-pcb-resources/package/pkg_pdf/soic_narrow-r/r_8.pdf), generated with kicad-footprint-generator ipc_gullwing_generator.py")\u000a    (tags "SOIC SO")\u000a    (path /6074414E/6074BA69)\u000a    (attr smd)\u000a    (fp_text reference U202 (at -1.5 -3.55) (layer F.SilkS)\u000a      (effects (font (size 0.6 0.6) (thickness 0.1)))\u000a    )\u000a    (fp_text value MCP2551-I-SN (at 0 3.4) (layer F.Fab)\u000a      (effects (font (size 1 1) (thickness 0.15)))\u000a    )\u000a    (fp_text user %R (at 0 0) (layer F.Fab)\u000a      (effects (font (size 1 1) (thickness 0.15)))\u000a    )\u000a    (fp_line (start 3.7 -2.7) (end -3.7 -2.7) (layer F.CrtYd) (width 0.05))\u000a    (fp_line (start 3.7 2.7) (end 3.7 -2.7) (layer F.CrtYd) (width 0.05))\u000a    (fp_line (start -3.7 2.7) (end 3.7 2.7) (layer F.CrtYd) (width 0.05))\u000a    (fp_line (start -3.7 -2.7) (end -3.7 2.7) (layer F.CrtYd) (width 0.05))\u000a    (fp_line (start -1.95 -1.475) (end -0.975 -2.45) (layer F.Fab) (width 0.1))\u000a    (fp_line (start -1.95 2.45) (end -1.95 -1.475) (layer F.Fab) (width 0.1))\u000a    (fp_line (start 1.95 2.45) (end -1.95 2.45) (layer F.Fab) (width 0.1))\u000a    (fp_line (start 1.95 -2.45) (end 1.95 2.45) (layer F.Fab) (width 0.1))\u000a    (fp_line (start -0.975 -2.45) (end 1.95 -2.45) (layer F.Fab) (width 0.1))\u000a    (fp_line (start 0 -2.56) (end -3.45 -2.56) (layer F.SilkS) (width 0.12))\u000a    (fp_line (start 0 -2.56) (end 1.95 -2.56) (layer F.SilkS) (width 0.12))\u000a    (fp_line (start 0 2.56) (end -1.95 2.56) (layer F.SilkS) (width 0.12))\u000a    (fp_line (start 0 2.56) (end 1.95 2.56) (layer F.SilkS) (width 0.12))\u000a    (pad 8 smd roundrect (at 2.475 -1.905 180) (size 1.95 0.6) (layers F.Cu F.Paste F.Mask) (roundrect_rratio 0.25)\u000a      (net 13 "Net-(R201-Pad2)"))\u000a    (pad 7 smd roundrect (at 2.475 -0.635 180) (size 1.95 0.6) (layers F.Cu F.Paste F.Mask) (roundrect_rratio 0.25)\u000a      (net 6 /Sheet6074414D/can_h))\u000a    (pad 6 smd roundrect (at 2.475 0.635 180) (size 1.95 0.6) (layers F.Cu F.Paste F.Mask) (roundrect_rratio 0.25)\u000a      (net 5 /Sheet6074414D/can_l))\u000a    (pad 5 smd roundrect (at 2.475 1.905 180) (size 1.95 0.6) (layers F.Cu F.Paste F.Mask) (roundrect_rratio 0.25)\u000a      (net 15 "Net-(U202-Pad5)"))\u000a    (pad 4 smd roundrect (at -2.475 1.905 180) (size 1.95 0.6) (layers F.Cu F.Paste F.Mask) (roundrect_rratio 0.25)\u000a      (net 16 /Sheet6074414D/can_rx))\u000a    (pad 3 smd roundrect (at -2.475 0.635 180) (size 1.95 0.6) (layers F.Cu F.Paste F.Mask) (roundrect_rratio 0.25)\u000a      (net 2 +5V))\u000a    (pad 2 smd roundrect (at -2.475 -0.635 180) (size 1.95 0.6) (layers F.Cu F.Paste F.Mask) (roundrect_rratio 0.25)\u000a      (net 1 GND))\u000a    (pad 1 smd roundrect (at -2.475 -1.905 180) (size 1.95 0.6) (layers F.Cu F.Paste F.Mask) (roundrect_rratio 0.25)\u000a      (net 17 /Sheet6074414D/can_tx))\u000a    (model ${KISYS3DMOD}/Package_SO.3dshapes/SOIC-8_3.9x4.9mm_P1.27mm.wrl\u000a      (at (xyz 0 0 0))\u000a      (scale (xyz 1 1 1))\u000a      (rotate (xyz 0 0 0))\u000a    )\u000a  )\u000a\u000a  (module Package_TO_SOT_SMD:SOT-323_SC-70_Handsoldering (layer F.Cu) (tedit 5A02FF57) (tstamp 6072350A)\u000a    (at 119.475 46.25 90)\u000a    (descr "SOT-323, SC-70 Handsoldering")\u000a    (tags "SOT-323 SC-70 Handsoldering")\u000a    (path /6074414E/6074BA81)\u000a    (attr smd)\u000a    (fp_text reference U201 (at 0 -1.85 90) (layer F.SilkS)\u000a      (effects (font (size 0.6 0.6) (thickness 0.1)))\u000a    )\u000a    (fp_text value PESD5V0L2UU_esd_diode (at 0 2.05 90) (layer F.Fab)\u000a      (effects (font (size 1 1) (thickness 0.15)))\u000a    )\u000a    (fp_line (start -0.175 -1.1) (end -0.675 -0.6) (layer F.Fab) (width 0.1))\u000a    (fp_line (start 0.675 1.1) (end -0.675 1.1) (layer F.Fab) (width 0.1))\u000a    (fp_line (start 0.675 -1.1) (end 0.675 1.1) (layer F.Fab) (width 0.1))\u000a    (fp_line (start -0.675 -0.6) (end -0.675 1.1) (layer F.Fab) (width 0.1))\u000a    (fp_line (start 0.675 -1.1) (end -0.175 -1.1) (layer F.Fab) (width 0.1))\u000a    (fp_line (start -0.675 1.16) (end 0.735 1.16) (layer F.SilkS) (width 0.12))\u000a    (fp_line (start 0.735 -1.16) (end -2 -1.16) (layer F.SilkS) (width 0.12))\u000a    (fp_line (start -2.4 1.3) (end -2.4 -1.3) (layer F.CrtYd) (width 0.05))\u000a    (fp_line (start -2.4 -1.3) (end 2.4 -1.3) (layer F.CrtYd) (width 0.05))\u000a    (fp_line (start 2.4 -1.3) (end 2.4 1.3) (layer F.CrtYd) (width 0.05))\u000a    (fp_line (start 2.4 1.3) (end -2.4 1.3) (layer F.CrtYd) (width 0.05))\u000a    (fp_line (start 0.735 -1.17) (end 0.735 -0.5) (layer F.SilkS) (width 0.12))\u000a    (fp_line (start 0.735 0.5) (end 0.735 1.16) (layer F.SilkS) (width 0.12))\u000a    (fp_text user %R (at 0 0) (layer F.Fab)\u000a      (effects (font (size 1 1) (thickness 0.15)))\u000a    )\u000a    (pad 3 smd rect (at 1.33 0) (size 0.45 1.5) (layers F.Cu F.Paste F.Mask)\u000a      (net 1 GND))\u000a    (pad 2 smd rect (at -1.33 0.65) (size 0.45 1.5) (layers F.Cu F.Paste F.Mask)\u000a      (net 6 /Sheet6074414D/can_h))\u000a    (pad 1 smd rect (at -1.33 -0.65) (size 0.45 1.5) (layers F.Cu F.Paste F.Mask)\u000a      (net 5 /Sheet6074414D/can_l))\u000a    (model ${KISYS3DMOD}/Package_TO_SOT_SMD.3dshapes/SOT-323_SC-70.wrl\u000a      (at (xyz 0 0 0))\u000a      (scale (xyz 1 1 1))\u000a      (rotate (xyz 0 0 0))\u000a    )\u000a  )\u000a\u000a  (module Resistor_SMD:R_0603_1608Metric_Pad1.05x0.95mm_HandSolder (layer F.Cu) (tedit 5B301BBD) (tstamp 60729F7F)\u000a    (at 116.415 33.15)\u000a    (descr "Resistor SMD 0603 (1608 Metric), square (rectangular) end terminal, IPC_7351 nominal with elongated pad for handsoldering. (Body size source: http://www.tortai-tech.com/upload/download/2011102023233369053.pdf), generated with kicad-footprint-generator")\u000a    (tags "resistor handsolder")\u000a    (path /6074414E/6074BADF)\u000a    (attr smd)\u000a    (fp_text reference R202 (at 0 -1.43) (layer F.SilkS)\u000a      (effects (font (size 0.6 0.6) (thickness 0.1)))\u000a    )\u000a    (fp_text value 10K (at 0 1.43) (layer F.Fab)\u000a      (effects (font (size 1 1) (thickness 0.15)))\u000a    )\u000a    (fp_text user %R (at 0 0) (layer F.Fab)\u000a      (effects (font (size 1 1) (thickness 0.15)))\u000a    )\u000a    (fp_line (start 1.65 0.73) (end -1.65 0.73) (layer F.CrtYd) (width 0.05))\u000a    (fp_line (start 1.65 -0.73) (end 1.65 0.73) (layer F.CrtYd) (width 0.05))\u000a    (fp_line (start -1.65 -0.73) (end 1.65 -0.73) (layer F.CrtYd) (width 0.05))\u000a    (fp_line (start -1.65 0.73) (end -1.65 -0.73) (layer F.CrtYd) (width 0.05))\u000a    (fp_line (start -0.171267 0.51) (end 0.171267 0.51) (layer F.SilkS) (width 0.12))\u000a    (fp_line (start -0.171267 -0.51) (end 0.171267 -0.51) (layer F.SilkS) (width 0.12))\u000a    (fp_line (start 0.8 0.4) (end -0.8 0.4) (layer F.Fab) (width 0.1))\u000a    (fp_line (start 0.8 -0.4) (end 0.8 0.4) (layer F.Fab) (width 0.1))\u000a    (fp_line (start -0.8 -0.4) (end 0.8 -0.4) (layer F.Fab) (width 0.1))\u000a    (fp_line (start -0.8 0.4) (end -0.8 -0.4) (layer F.Fab) (width 0.1))\u000a    (pad 2 smd roundrect (at 0.875 0) (size 1.05 0.95) (layers F.Cu F.Paste F.Mask) (roundrect_rratio 0.25)\u000a      (net 2 +5V))\u000a    (pad 1 smd roundrect (at -0.875 0) (size 1.05 0.95) (layers F.Cu F.Paste F.Mask) (roundrect_rratio 0.25)\u000a      (net 14 "Net-(R202-Pad1)"))\u000a    (model ${KISYS3DMOD}/Resistor_SMD.3dshapes/R_0603_1608Metric.wrl\u000a      (at (xyz 0 0 0))\u000a      (scale (xyz 1 1 1))\u000a      (rotate (xyz 0 0 0))\u000a    )\u000a  )\u000a\u000a  (module Resistor_SMD:R_0603_1608Metric_Pad1.05x0.95mm_HandSolder (layer F.Cu) (tedit 5B301BBD) (tstamp 607234E4)\u000a    (at 119.275 42.675)\u000a    (descr "Resistor SMD 0603 (1608 Metric), square (rectangular) end terminal, IPC_7351 nominal with elongated pad for handsoldering. (Body size source: http://www.tortai-tech.com/upload/download/2011102023233369053.pdf), generated with kicad-footprint-generator")\u000a    (tags "resistor handsolder")\u000a    (path /6074414E/6074BA98)\u000a    (attr smd)\u000a    (fp_text reference R201 (at 0 -1.43) (layer F.SilkS)\u000a      (effects (font (size 0.6 0.6) (thickness 0.1)))\u000a    )\u000a    (fp_text value 47K (at 0 1.43) (layer F.Fab)\u000a      (effects (font (size 1 1) (thickness 0.15)))\u000a    )\u000a    (fp_text user %R (at 0 0) (layer F.Fab)\u000a      (effects (font (size 1 1) (thickness 0.15)))\u000a    )\u000a    (fp_line (start 1.65 0.73) (end -1.65 0.73) (layer F.CrtYd) (width 0.05))\u000a    (fp_line (start 1.65 -0.73) (end 1.65 0.73) (layer F.CrtYd) (width 0.05))\u000a    (fp_line (start -1.65 -0.73) (end 1.65 -0.73) (layer F.CrtYd) (width 0.05))\u000a    (fp_line (start -1.65 0.73) (end -1.65 -0.73) (layer F.CrtYd) (width 0.05))\u000a    (fp_line (start -0.171267 0.51) (end 0.171267 0.51) (layer F.SilkS) (width 0.12))\u000a    (fp_line (start -0.171267 -0.51) (end 0.171267 -0.51) (layer F.SilkS) (width 0.12))\u000a    (fp_line (start 0.8 0.4) (end -0.8 0.4) (layer F.Fab) (width 0.1))\u000a    (fp_line (start 0.8 -0.4) (end 0.8 0.4) (layer F.Fab) (width 0.1))\u000a    (fp_line (start -0.8 -0.4) (end 0.8 -0.4) (layer F.Fab) (width 0.1))\u000a    (fp_line (start -0.8 0.4) (end -0.8 -0.4) (layer F.Fab) (width 0.1))\u000a    (pad 2 smd roundrect (at 0.875 0) (size 1.05 0.95) (layers F.Cu F.Paste F.Mask) (roundrect_rratio 0.25)\u000a      (net 13 "Net-(R201-Pad2)"))\u000a    (pad 1 smd roundrect (at -0.875 0) (size 1.05 0.95) (layers F.Cu F.Paste F.Mask) (roundrect_rratio 0.25)\u000a      (net 1 GND))\u000a    (model ${KISYS3DMOD}/Resistor_SMD.3dshapes/R_0603_1608Metric.wrl\u000a      (at (xyz 0 0 0))\u000a      (scale (xyz 1 1 1))\u000a      (rotate (xyz 0 0 0))\u000a    )\u000a  )\u000a\u000a  (module Connector_Phoenix_MC_HighVoltage:PhoenixContact_MCV_1,5_2-G-5.08_1x02_P5.08mm_Vertical (layer F.Cu) (tedit 5B784ED3) (tstamp 607234D3)\u000a    (at 120.09 55.32)\u000a    (descr "Generic Phoenix Contact connector footprint for: MCV_1,5/2-G-5.08; number of pins: 02; pin pitch: 5.08mm; Vertical || order number: 1836299 8A 320V")\u000a    (tags "phoenix_contact connector MCV_01x02_G_5.08mm")\u000a    (path /6074414E/6074BB1B)\u000a    (fp_text reference J202 (at 2.54 -5.55) (layer F.SilkS)\u000a      (effects (font (size 0.6 0.6) (thickness 0.1)))\u000a    )\u000a    (fp_text value Screw_Terminal_01x02 (at 2.54 4.1) (layer F.Fab)\u000a      (effects (font (size 1 1) (thickness 0.15)))\u000a    )\u000a    (fp_text user %R (at 2.54 -3.65) (layer F.Fab)\u000a      (effects (font (size 1 1) (thickness 0.15)))\u000a    )\u000a    (fp_line (start -3.04 -4.85) (end -1.04 -4.85) (layer F.Fab) (width 0.1))\u000a    (fp_line (start -3.04 -3.6) (end -3.04 -4.85) (layer F.Fab) (width 0.1))\u000a    (fp_line (start -3.04 -4.85) (end -1.04 -4.85) (layer F.SilkS) (width 0.12))\u000a    (fp_line (start -3.04 -3.6) (end -3.04 -4.85) (layer F.SilkS) (width 0.12))\u000a    (fp_line (start 8.12 -4.85) (end -3.04 -4.85) (layer F.CrtYd) (width 0.05))\u000a    (fp_line (start 8.12 3.4) (end 8.12 -4.85) (layer F.CrtYd) (width 0.05))\u000a    (fp_line (start -3.04 3.4) (end 8.12 3.4) (layer F.CrtYd) (width 0.05))\u000a    (fp_line (start -3.04 -4.85) (end -3.04 3.4) (layer F.CrtYd) (width 0.05))\u000a    (fp_line (start 6.58 2.15) (end 5.83 2.15) (layer F.SilkS) (width 0.12))\u000a    (fp_line (start 6.58 -2.15) (end 6.58 2.15) (layer F.SilkS) (width 0.12))\u000a    (fp_line (start 5.83 -2.15) (end 6.58 -2.15) (layer F.SilkS) (width 0.12))\u000a    (fp_line (start 5.83 -2.5) (end 5.83 -2.15) (layer F.SilkS) (width 0.12))\u000a    (fp_line (start 6.33 -2.5) (end 5.83 -2.5) (layer F.SilkS) (width 0.12))\u000a    (fp_line (start 6.58 -3.5) (end 6.33 -2.5) (layer F.SilkS) (width 0.12))\u000a    (fp_line (start 3.58 -3.5) (end 6.58 -3.5) (layer F.SilkS) (width 0.12))\u000a    (fp_line (start 3.83 -2.5) (end 3.58 -3.5) (layer F.SilkS) (width 0.12))\u000a    (fp_line (start 4.33 -2.5) (end 3.83 -2.5) (layer F.SilkS) (width 0.12))\u000a    (fp_line (start 4.33 -2.15) (end 4.33 -2.5) (layer F.SilkS) (width 0.12))\u000a    (fp_line (start 3.58 -2.15) (end 4.33 -2.15) (layer F.SilkS) (width 0.12))\u000a    (fp_line (start 3.58 2.15) (end 3.58 -2.15) (layer F.SilkS) (width 0.12))\u000a    (fp_line (start 4.33 2.15) (end 3.58 2.15) (layer F.SilkS) (width 0.12))\u000a    (fp_line (start 1.5 2.15) (end 0.75 2.15) (layer F.SilkS) (width 0.12))\u000a    (fp_line (start 1.5 -2.15) (end 1.5 2.15) (layer F.SilkS) (width 0.12))\u000a    (fp_line (start 0.75 -2.15) (end 1.5 -2.15) (layer F.SilkS) (width 0.12))\u000a    (fp_line (start 0.75 -2.5) (end 0.75 -2.15) (layer F.SilkS) (width 0.12))\u000a    (fp_line (start 1.25 -2.5) (end 0.75 -2.5) (layer F.SilkS) (width 0.12))\u000a    (fp_line (start 1.5 -3.5) (end 1.25 -2.5) (layer F.SilkS) (width 0.12))\u000a    (fp_line (start -1.5 -3.5) (end 1.5 -3.5) (layer F.SilkS) (width 0.12))\u000a    (fp_line (start -1.25 -2.5) (end -1.5 -3.5) (layer F.SilkS) (width 0.12))\u000a    (fp_line (start -0.75 -2.5) (end -1.25 -2.5) (layer F.SilkS) (width 0.12))\u000a    (fp_line (start -0.75 -2.15) (end -0.75 -2.5) (layer F.SilkS) (width 0.12))\u000a    (fp_line (start -1.5 -2.15) (end -0.75 -2.15) (layer F.SilkS) (width 0.12))\u000a    (fp_line (start -1.5 2.15) (end -1.5 -2.15) (layer F.SilkS) (width 0.12))\u000a    (fp_line (start -0.75 2.15) (end -1.5 2.15) (layer F.SilkS) (width 0.12))\u000a    (fp_line (start 7.62 -4.35) (end -2.54 -4.35) (layer F.Fab) (width 0.1))\u000a    (fp_line (start 7.62 2.9) (end 7.62 -4.35) (layer F.Fab) (width 0.1))\u000a    (fp_line (start -2.54 2.9) (end 7.62 2.9) (layer F.Fab) (width 0.1))\u000a    (fp_line (start -2.54 -4.35) (end -2.54 2.9) (layer F.Fab) (width 0.1))\u000a    (fp_line (start 7.73 -4.46) (end -2.65 -4.46) (layer F.SilkS) (width 0.12))\u000a    (fp_line (start 7.73 3.01) (end 7.73 -4.46) (layer F.SilkS) (width 0.12))\u000a    (fp_line (start -2.65 3.01) (end 7.73 3.01) (layer F.SilkS) (width 0.12))\u000a    (fp_line (start -2.65 -4.46) (end -2.65 3.01) (layer F.SilkS) (width 0.12))\u000a    (fp_arc (start 5.08 3.85) (end 4.33 2.15) (angle 47.6) (layer F.SilkS) (width 0.12))\u000a    (fp_arc (start 0 3.85) (end -0.75 2.15) (angle 47.6) (layer F.SilkS) (width 0.12))\u000a    (pad 2 thru_hole oval (at 5.08 0) (size 1.8 3.6) (drill 1.2) (layers *.Cu *.Mask)\u000a      (net 5 /Sheet6074414D/can_l))\u000a    (pad 1 thru_hole roundrect (at 0 0) (size 1.8 3.6) (drill 1.2) (layers *.Cu *.Mask) (roundrect_rratio 0.138889)\u000a      (net 6 /Sheet6074414D/can_h))\u000a    (model ${KISYS3DMOD}/Connector_Phoenix_MC_HighVoltage.3dshapes/PhoenixContact_MCV_1,5_2-G-5.08_1x02_P5.08mm_Vertical.wrl\u000a      (at (xyz 0 0 0))\u000a      (scale (xyz 1 1 1))\u000a      (rotate (xyz 0 0 0))\u000a    )\u000a  )\u000a\u000a  (module Connector_RJ:RJ45_Amphenol_54602-x08_Horizontal (layer F.Cu) (tedit 5B103613) (tstamp 607234A0)\u000a    (at 104.35 47.125)\u000a    (descr "8 Pol Shallow Latch Connector, Modjack, RJ45 (https://cdn.amphenol-icc.com/media/wysiwyg/files/drawing/c-bmj-0102.pdf)")\u000a    (tags RJ45)\u000a    (path /6074414E/6074BA6F)\u000a    (fp_text reference J201 (at 6.19 -4.855) (layer F.SilkS)\u000a      (effects (font (size 0.6 0.6) (thickness 0.1)))\u000a    )\u000a    (fp_text value RJ45 (at 4.445 4) (layer F.Fab)\u000a      (effects (font (size 1 1) (thickness 0.15)))\u000a    )\u000a    (fp_line (start 12.6 14.47) (end -3.71 14.47) (layer F.CrtYd) (width 0.05))\u000a    (fp_line (start 12.6 14.47) (end 12.6 -4.27) (layer F.CrtYd) (width 0.05))\u000a    (fp_line (start -3.71 -4.27) (end -3.71 14.47) (layer F.CrtYd) (width 0.05))\u000a    (fp_line (start -3.71 -4.27) (end 12.6 -4.27) (layer F.CrtYd) (width 0.05))\u000a    (fp_line (start -3.315 -3.88) (end -3.315 14.08) (layer F.SilkS) (width 0.12))\u000a    (fp_line (start 12.205 -3.88) (end -3.315 -3.88) (layer F.SilkS) (width 0.12))\u000a    (fp_line (start 12.205 -3.88) (end 12.205 14.08) (layer F.SilkS) (width 0.12))\u000a    (fp_line (start -3.315 14.08) (end 12.205 14.08) (layer F.SilkS) (width 0.12))\u000a    (fp_line (start -3.205 -2.77) (end -2.205 -3.77) (layer F.Fab) (width 0.12))\u000a    (fp_line (start -2.205 -3.77) (end 12.095 -3.77) (layer F.Fab) (width 0.12))\u000a    (fp_line (start 12.095 -3.77) (end 12.095 13.97) (layer F.Fab) (width 0.12))\u000a    (fp_line (start 12.095 13.97) (end -3.205 13.97) (layer F.Fab) (width 0.12))\u000a    (fp_line (start -3.205 13.97) (end -3.205 -2.77) (layer F.Fab) (width 0.12))\u000a    (fp_line (start -3.5 0) (end -4 -0.5) (layer F.SilkS) (width 0.12))\u000a    (fp_line (start -4 -0.5) (end -4 0.5) (layer F.SilkS) (width 0.12))\u000a    (fp_line (start -4 0.5) (end -3.5 0) (layer F.SilkS) (width 0.12))\u000a    (fp_text user %R (at 4.445 2) (layer F.Fab)\u000a      (effects (font (size 1 1) (thickness 0.15)))\u000a    )\u000a    (pad 8 thru_hole circle (at 8.89 -2.54) (size 1.5 1.5) (drill 0.76) (layers *.Cu *.Mask)\u000a      (net 5 /Sheet6074414D/can_l))\u000a    (pad 7 thru_hole circle (at 7.62 0) (size 1.5 1.5) (drill 0.76) (layers *.Cu *.Mask)\u000a      (net 6 /Sheet6074414D/can_h))\u000a    (pad 6 thru_hole circle (at 6.35 -2.54) (size 1.5 1.5) (drill 0.76) (layers *.Cu *.Mask)\u000a      (net 7 "Net-(J201-Pad6)"))\u000a    (pad 5 thru_hole circle (at 5.08 0) (size 1.5 1.5) (drill 0.76) (layers *.Cu *.Mask)\u000a      (net 8 "Net-(J201-Pad5)"))\u000a    (pad 4 thru_hole circle (at 3.81 -2.54) (size 1.5 1.5) (drill 0.76) (layers *.Cu *.Mask)\u000a      (net 9 "Net-(J201-Pad4)"))\u000a    (pad 3 thru_hole circle (at 2.54 0) (size 1.5 1.5) (drill 0.76) (layers *.Cu *.Mask)\u000a      (net 10 "Net-(J201-Pad3)"))\u000a    (pad 2 thru_hole circle (at 1.27 -2.54) (size 1.5 1.5) (drill 0.76) (layers *.Cu *.Mask)\u000a      (net 11 "Net-(J201-Pad2)"))\u000a    (pad 1 thru_hole rect (at 0 0) (size 1.5 1.5) (drill 0.76) (layers *.Cu *.Mask)\u000a      (net 12 "Net-(J201-Pad1)"))\u000a    (pad "" np_thru_hole circle (at -1.27 6.35) (size 3.2 3.2) (drill 3.2) (layers *.Cu *.Mask))\u000a    (pad "" np_thru_hole circle (at 10.16 6.35) (size 3.2 3.2) (drill 3.2) (layers *.Cu *.Mask))\u000a    (model ${KISYS3DMOD}/Connector_RJ.3dshapes/RJ45_Amphenol_54602-x08_Horizontal.wrl\u000a      (at (xyz 0 0 0))\u000a      (scale (xyz 1 1 1))\u000a      (rotate (xyz 0 0 0))\u000a    )\u000a  )\u000a\u000a  (module Capacitor_SMD:C_0603_1608Metric_Pad1.05x0.95mm_HandSolder (layer F.Cu) (tedit 5B301BBE) (tstamp 60729FAF)\u000a    (at 108.16 40.335 270)\u000a    (descr "Capacitor SMD 0603 (1608 Metric), square (rectangular) end terminal, IPC_7351 nominal with elongated pad for handsoldering. (Body size source: http://www.tortai-tech.com/upload/download/2011102023233369053.pdf), generated with kicad-footprint-generator")\u000a    (tags "capacitor handsolder")\u000a    (path /6074414E/6074BAC0)\u000a    (attr smd)\u000a    (fp_text reference C204 (at 0 -1.43 90) (layer F.SilkS)\u000a      (effects (font (size 0.6 0.6) (thickness 0.1)))\u000a    )\u000a    (fp_text value 2pf (at 0 1.43 90) (layer F.Fab)\u000a      (effects (font (size 1 1) (thickness 0.15)))\u000a    )\u000a    (fp_text user %R (at 0 0 90) (layer F.Fab)\u000a      (effects (font (size 1 1) (thickness 0.15)))\u000a    )\u000a    (fp_line (start 1.65 0.73) (end -1.65 0.73) (layer F.CrtYd) (width 0.05))\u000a    (fp_line (start 1.65 -0.73) (end 1.65 0.73) (layer F.CrtYd) (width 0.05))\u000a    (fp_line (start -1.65 -0.73) (end 1.65 -0.73) (layer F.CrtYd) (width 0.05))\u000a    (fp_line (start -1.65 0.73) (end -1.65 -0.73) (layer F.CrtYd) (width 0.05))\u000a    (fp_line (start -0.171267 0.51) (end 0.171267 0.51) (layer F.SilkS) (width 0.12))\u000a    (fp_line (start -0.171267 -0.51) (end 0.171267 -0.51) (layer F.SilkS) (width 0.12))\u000a    (fp_line (start 0.8 0.4) (end -0.8 0.4) (layer F.Fab) (width 0.1))\u000a    (fp_line (start 0.8 -0.4) (end 0.8 0.4) (layer F.Fab) (width 0.1))\u000a    (fp_line (start -0.8 -0.4) (end 0.8 -0.4) (layer F.Fab) (width 0.1))\u000a    (fp_line (start -0.8 0.4) (end -0.8 -0.4) (layer F.Fab) (width 0.1))\u000a    (pad 2 smd roundrect (at 0.875 0 270) (size 1.05 0.95) (layers F.Cu F.Paste F.Mask) (roundrect_rratio 0.25)\u000a      (net 4 "Net-(C204-Pad2)"))\u000a    (pad 1 smd roundrect (at -0.875 0 270) (size 1.05 0.95) (layers F.Cu F.Paste F.Mask) (roundrect_rratio 0.25)\u000a      (net 1 GND))\u000a    (model ${KISYS3DMOD}/Capacitor_SMD.3dshapes/C_0603_1608Metric.wrl\u000a      (at (xyz 0 0 0))\u000a      (scale (xyz 1 1 1))\u000a      (rotate (xyz 0 0 0))\u000a    )\u000a  )\u000a\u000a  (module Capacitor_SMD:C_0603_1608Metric_Pad1.05x0.95mm_HandSolder (layer F.Cu) (tedit 5B301BBE) (tstamp 60729F1F)\u000a    (at 108.16 36.815 90)\u000a    (descr "Capacitor SMD 0603 (1608 Metric), square (rectangular) end terminal, IPC_7351 nominal with elongated pad for handsoldering. (Body size source: http://www.tortai-tech.com/upload/download/2011102023233369053.pdf), generated with kicad-footprint-generator")\u000a    (tags "capacitor handsolder")\u000a    (path /6074414E/6074BACC)\u000a    (attr smd)\u000a    (fp_text reference C203 (at 0.085 1.29 90) (layer F.SilkS)\u000a      (effects (font (size 0.6 0.6) (thickness 0.1)))\u000a    )\u000a    (fp_text value 2pf (at 0 1.43 90) (layer F.Fab)\u000a      (effects (font (size 1 1) (thickness 0.15)))\u000a    )\u000a    (fp_text user %R (at 0 0 90) (layer F.Fab)\u000a      (effects (font (size 1 1) (thickness 0.15)))\u000a    )\u000a    (fp_line (start 1.65 0.73) (end -1.65 0.73) (layer F.CrtYd) (width 0.05))\u000a    (fp_line (start 1.65 -0.73) (end 1.65 0.73) (layer F.CrtYd) (width 0.05))\u000a    (fp_line (start -1.65 -0.73) (end 1.65 -0.73) (layer F.CrtYd) (width 0.05))\u000a    (fp_line (start -1.65 0.73) (end -1.65 -0.73) (layer F.CrtYd) (width 0.05))\u000a    (fp_line (start -0.171267 0.51) (end 0.171267 0.51) (layer F.SilkS) (width 0.12))\u000a    (fp_line (start -0.171267 -0.51) (end 0.171267 -0.51) (layer F.SilkS) (width 0.12))\u000a    (fp_line (start 0.8 0.4) (end -0.8 0.4) (layer F.Fab) (width 0.1))\u000a    (fp_line (start 0.8 -0.4) (end 0.8 0.4) (layer F.Fab) (width 0.1))\u000a    (fp_line (start -0.8 -0.4) (end 0.8 -0.4) (layer F.Fab) (width 0.1))\u000a    (fp_line (start -0.8 0.4) (end -0.8 -0.4) (layer F.Fab) (width 0.1))\u000a    (pad 2 smd roundrect (at 0.875 0 90) (size 1.05 0.95) (layers F.Cu F.Paste F.Mask) (roundrect_rratio 0.25)\u000a      (net 3 "Net-(C203-Pad2)"))\u000a    (pad 1 smd roundrect (at -0.875 0 90) (size 1.05 0.95) (layers F.Cu F.Paste F.Mask) (roundrect_rratio 0.25)\u000a      (net 1 GND))\u000a    (model ${KISYS3DMOD}/Capacitor_SMD.3dshapes/C_0603_1608Metric.wrl\u000a      (at (xyz 0 0 0))\u000a      (scale (xyz 1 1 1))\u000a      (rotate (xyz 0 0 0))\u000a    )\u000a  )\u000a\u000a  (module Capacitor_SMD:C_0603_1608Metric_Pad1.05x0.95mm_HandSolder (layer F.Cu) (tedit 5B301BBE) (tstamp 60729F4F)\u000a    (at 113.24 31.085 270)\u000a    (descr "Capacitor SMD 0603 (1608 Metric), square (rectangular) end terminal, IPC_7351 nominal with elongated pad for handsoldering. (Body size source: http://www.tortai-tech.com/upload/download/2011102023233369053.pdf), generated with kicad-footprint-generator")\u000a    (tags "capacitor handsolder")\u000a    (path /6074414E/6074BA9E)\u000a    (attr smd)\u000a    (fp_text reference C202 (at 0 -1.43 90) (layer F.SilkS)\u000a      (effects (font (size 0.6 0.6) (thickness 0.1)))\u000a    )\u000a    (fp_text value 100nf (at 0 1.43 90) (layer F.Fab)\u000a      (effects (font (size 1 1) (thickness 0.15)))\u000a    )\u000a    (fp_text user %R (at 0 0 90) (layer F.Fab)\u000a      (effects (font (size 1 1) (thickness 0.15)))\u000a    )\u000a    (fp_line (start 1.65 0.73) (end -1.65 0.73) (layer F.CrtYd) (width 0.05))\u000a    (fp_line (start 1.65 -0.73) (end 1.65 0.73) (layer F.CrtYd) (width 0.05))\u000a    (fp_line (start -1.65 -0.73) (end 1.65 -0.73) (layer F.CrtYd) (width 0.05))\u000a    (fp_line (start -1.65 0.73) (end -1.65 -0.73) (layer F.CrtYd) (width 0.05))\u000a    (fp_line (start -0.171267 0.51) (end 0.171267 0.51) (layer F.SilkS) (width 0.12))\u000a    (fp_line (start -0.171267 -0.51) (end 0.171267 -0.51) (layer F.SilkS) (width 0.12))\u000a    (fp_line (start 0.8 0.4) (end -0.8 0.4) (layer F.Fab) (width 0.1))\u000a    (fp_line (start 0.8 -0.4) (end 0.8 0.4) (layer F.Fab) (width 0.1))\u000a    (fp_line (start -0.8 -0.4) (end 0.8 -0.4) (layer F.Fab) (width 0.1))\u000a    (fp_line (start -0.8 0.4) (end -0.8 -0.4) (layer F.Fab) (width 0.1))\u000a    (pad 2 smd roundrect (at 0.875 0 270) (size 1.05 0.95) (layers F.Cu F.Paste F.Mask) (roundrect_rratio 0.25)\u000a      (net 1 GND))\u000a    (pad 1 smd roundrect (at -0.875 0 270) (size 1.05 0.95) (layers F.Cu F.Paste F.Mask) (roundrect_rratio 0.25)\u000a      (net 2 +5V))\u000a    (model ${KISYS3DMOD}/Capacitor_SMD.3dshapes/C_0603_1608Metric.wrl\u000a      (at (xyz 0 0 0))\u000a      (scale (xyz 1 1 1))\u000a      (rotate (xyz 0 0 0))\u000a    )\u000a  )\u000a\u000a  (module Capacitor_SMD:C_0603_1608Metric_Pad1.05x0.95mm_HandSolder (layer F.Cu) (tedit 5B301BBE) (tstamp 6072344E)\u000a    (at 129.89 45.245 270)\u000a    (descr "Capacitor SMD 0603 (1608 Metric), square (rectangular) end terminal, IPC_7351 nominal with elongated pad for handsoldering. (Body size source: http://www.tortai-tech.com/upload/download/2011102023233369053.pdf), generated with kicad-footprint-generator")\u000a    (tags "capacitor handsolder")\u000a    (path /6074414E/6074BB01)\u000a    (attr smd)\u000a    (fp_text reference C201 (at 2.215 -0.14 180) (layer F.SilkS)\u000a      (effects (font (size 0.6 0.6) (thickness 0.1)))\u000a    )\u000a    (fp_text value 100nf (at 0 1.43 90) (layer F.Fab)\u000a      (effects (font (size 1 1) (thickness 0.15)))\u000a    )\u000a    (fp_text user %R (at 0 0 90) (layer F.Fab)\u000a      (effects (font (size 1 1) (thickness 0.15)))\u000a    )\u000a    (fp_line (start 1.65 0.73) (end -1.65 0.73) (layer F.CrtYd) (width 0.05))\u000a    (fp_line (start 1.65 -0.73) (end 1.65 0.73) (layer F.CrtYd) (width 0.05))\u000a    (fp_line (start -1.65 -0.73) (end 1.65 -0.73) (layer F.CrtYd) (width 0.05))\u000a    (fp_line (start -1.65 0.73) (end -1.65 -0.73) (layer F.CrtYd) (width 0.05))\u000a    (fp_line (start -0.171267 0.51) (end 0.171267 0.51) (layer F.SilkS) (width 0.12))\u000a    (fp_line (start -0.171267 -0.51) (end 0.171267 -0.51) (layer F.SilkS) (width 0.12))\u000a    (fp_line (start 0.8 0.4) (end -0.8 0.4) (layer F.Fab) (width 0.1))\u000a    (fp_line (start 0.8 -0.4) (end 0.8 0.4) (layer F.Fab) (width 0.1))\u000a    (fp_line (start -0.8 -0.4) (end 0.8 -0.4) (layer F.Fab) (width 0.1))\u000a    (fp_line (start -0.8 0.4) (end -0.8 -0.4) (layer F.Fab) (width 0.1))\u000a    (pad 2 smd roundrect (at 0.875 0 270) (size 1.05 0.95) (layers F.Cu F.Paste F.Mask) (roundrect_rratio 0.25)\u000a      (net 1 GND))\u000a    (pad 1 smd roundrect (at -0.875 0 270) (size 1.05 0.95) (layers F.Cu F.Paste F.Mask) (roundrect_rratio 0.25)\u000a      (net 2 +5V))\u000a    (model ${KISYS3DMOD}/Capacitor_SMD.3dshapes/C_0603_1608Metric.wrl\u000a      (at (xyz 0 0 0))\u000a      (scale (xyz 1 1 1))\u000a      (rotate (xyz 0 0 0))\u000a    )\u000a  )\u000a\u000a  (segment (start 128.035 46.12) (end 127.7 45.785) (width 0.25) (layer F.Cu) (net 1))\u000a  (segment (start 129.89 46.12) (end 128.035 46.12) (width 0.25) (layer F.Cu) (net 1))\u000a  (segment (start 119.475 43.75) (end 118.4 42.675) (width 0.25) (layer F.Cu) (net 1))\u000a  (segment (start 119.475 44.92) (end 119.475 43.75) (width 0.25) (layer F.Cu) (net 1))\u000a  (segment (start 126.725 45.785) (end 125.04 44.1) (width 0.25) (layer F.Cu) (net 1))\u000a  (segment (start 127.7 45.785) (end 126.725 45.785) (width 0.25) (layer F.Cu) (net 1))\u000a  (segment (start 118.72501 41.87499) (end 118.4 42.2) (width 0.25) (layer F.Cu) (net 1))\u000a  (segment (start 123.026758 41.87499) (end 118.72501 41.87499) (width 0.25) (layer F.Cu) (net 1))\u000a  (segment (start 118.4 42.2) (end 118.4 42.675) (width 0.25) (layer F.Cu) (net 1))\u000a  (segment (start 125.04 43.888232) (end 123.026758 41.87499) (width 0.25) (layer F.Cu) (net 1))\u000a  (segment (start 125.04 44.1) (end 125.04 43.888232) (width 0.25) (layer F.Cu) (net 1))\u000a  (segment (start 108.16 39.46) (end 108.16 37.69) (width 0.25) (layer F.Cu) (net 1))\u000a  (via (at 106.83 39.53) (size 0.8) (drill 0.4) (layers F.Cu B.Cu) (net 1))\u000a  (segment (start 106.9 39.46) (end 106.83 39.53) (width 0.25) (layer F.Cu) (net 1))\u000a  (segment (start 108.16 39.46) (end 106.9 39.46) (width 0.25) (layer F.Cu) (net 1))\u000a  (segment (start 108.7 41.4) (end 110.7 41.4) (width 0.25) (layer B.Cu) (net 1))\u000a  (via (at 110.7 41.4) (size 0.8) (drill 0.4) (layers F.Cu B.Cu) (net 1))\u000a  (segment (start 106.83 39.53) (end 108.7 41.4) (width 0.25) (layer B.Cu) (net 1))\u000a  (segment (start 110.7 41.05) (end 111.17 40.58) (width 0.25) (layer F.Cu) (net 1))\u000a  (segment (start 110.7 41.4) (end 110.7 41.05) (width 0.25) (layer F.Cu) (net 1))\u000a  (segment (start 113.715 31.96) (end 113.24 31.96) (width 0.25) (layer F.Cu) (net 1))\u000a  (segment (start 114.455001 32.700001) (end 113.715 31.96) (width 0.25) (layer F.Cu) (net 1))\u000a  (segment (start 114.455001 38.269999) (end 114.455001 32.700001) (width 0.25) (layer F.Cu) (net 1))\u000a  (segment (start 112.145 40.58) (end 114.455001 38.269999) (width 0.25) (layer F.Cu) (net 1))\u000a  (segment (start 111.17 40.58) (end 112.145 40.58) (width 0.25) (layer F.Cu) (net 1))\u000a  (segment (start 111.975 42.675) (end 110.7 41.4) (width 0.25) (layer F.Cu) (net 1))\u000a  (segment (start 118.4 42.675) (end 111.975 42.675) (width 0.25) (layer F.Cu) (net 1))\u000a  (segment (start 117.29 32.675) (end 117.29 33.15) (width 0.25) (layer F.Cu) (net 2) (tstamp 60729FD9))\u000a  (segment (start 114.825 30.21) (end 117.29 32.675) (width 0.25) (layer F.Cu) (net 2) (tstamp 60729E5F))\u000a  (segment (start 113.24 30.21) (end 114.825 30.21) (width 0.25) (layer F.Cu) (net 2) (tstamp 60729FD3))\u000a  (segment (start 117.29 33.15) (end 117.29 34.649999) (width 0.25) (layer F.Cu) (net 2) (tstamp 60729E59))\u000a  (segment (start 117.209999 34.73) (end 117.07 34.73) (width 0.25) (layer F.Cu) (net 2) (tstamp 60729E56))\u000a  (segment (start 117.29 34.649999) (end 117.209999 34.73) (width 0.25) (layer F.Cu) (net 2) (tstamp 60729FD6))\u000a  (segment (start 129.745 44.515) (end 129.89 44.37) (width 0.25) (layer F.Cu) (net 2))\u000a  (segment (start 127.7 44.515) (end 129.745 44.515) (width 0.25) (layer F.Cu) (net 2))\u000a  (segment (start 110.195 39.28) (end 109.33 38.415) (width 0.25) (layer F.Cu) (net 3))\u000a  (segment (start 111.17 39.28) (end 110.195 39.28) (width 0.25) (layer F.Cu) (net 3))\u000a  (segment (start 108.635 35.94) (end 108.16 35.94) (width 0.25) (layer F.Cu) (net 3))\u000a  (segment (start 109.33 36.635) (end 108.635 35.94) (width 0.25) (layer F.Cu) (net 3))\u000a  (segment (start 109.33 38.415) (end 109.33 36.635) (width 0.25) (layer F.Cu) (net 3))\u000a  (segment (start 105.83 31.055) (end 104.58 31.055) (width 0.25) (layer F.Cu) (net 3))\u000a  (segment (start 108.16 33.385) (end 105.83 31.055) (width 0.25) (layer F.Cu) (net 3))\u000a  (segment (start 108.16 35.94) (end 108.16 33.385) (width 0.25) (layer F.Cu) (net 3))\u000a  (segment (start 104.58 41.2425) (end 104.58 38.305) (width 0.25) (layer F.Cu) (net 4) (tstamp 60729E5C))\u000a  (segment (start 108.1275 41.2425) (end 108.16 41.21) (width 0.25) (layer F.Cu) (net 4))\u000a  (segment (start 104.58 41.2425) (end 108.1275 41.2425) (width 0.25) (layer F.Cu) (net 4))\u000a  (segment (start 109.915 39.93) (end 110.195 39.93) (width 0.25) (layer F.Cu) (net 4))\u000a  (segment (start 108.635 41.21) (end 109.915 39.93) (width 0.25) (layer F.Cu) (net 4))\u000a  (segment (start 110.195 39.93) (end 111.17 39.93) (width 0.25) (layer F.Cu) (net 4))\u000a  (segment (start 108.16 41.21) (end 108.635 41.21) (width 0.25) (layer F.Cu) (net 4))\u000a  (segment (start 118.825 47.055) (end 118.825 47.58) (width 0.25) (layer F.Cu) (net 5))\u000a  (segment (start 121.065 44.815) (end 118.825 47.055) (width 0.25) (layer F.Cu) (net 5))\u000a  (segment (start 122.45 44.815) (end 121.065 44.815) (width 0.25) (layer F.Cu) (net 5))\u000a  (segment (start 122.75 44.515) (end 122.45 44.815) (width 0.25) (layer F.Cu) (net 5))\u000a  (segment (start 114.30066 44.585) (end 113.24 44.585) (width 0.25) (layer F.Cu) (net 5))\u000a  (segment (start 116.83 44.585) (end 114.30066 44.585) (width 0.25) (layer F.Cu) (net 5))\u000a  (segment (start 118.825 46.58) (end 116.83 44.585) (width 0.25) (layer F.Cu) (net 5))\u000a  (segment (start 118.825 47.58) (end 118.825 46.58) (width 0.25) (layer F.Cu) (net 5))\u000a  (segment (start 125.17 53.27) (end 125.17 55.32) (width 0.25) (layer F.Cu) (net 5))\u000a  (segment (start 122.75 44.515) (end 123.725 44.515) (width 0.25) (layer F.Cu) (net 5))\u000a  (segment (start 125.15 50.02) (end 125.14 50.03) (width 0.25) (layer F.Cu) (net 5))\u000a  (segment (start 129.84 50.02) (end 125.15 50.02) (width 0.25) (layer F.Cu) (net 5))\u000a  (via (at 118.2 47.81) (size 0.8) (drill 0.4) (layers F.Cu B.Cu) (net 5))\u000a  (segment (start 118.43 47.58) (end 118.2 47.81) (width 0.25) (layer F.Cu) (net 5))\u000a  (segment (start 118.825 47.58) (end 118.43 47.58) (width 0.25) (layer F.Cu) (net 5))\u000a  (via (at 120.815 49.49) (size 0.8) (drill 0.4) (layers F.Cu B.Cu) (net 5))\u000a  (segment (start 119.88 49.49) (end 120.815 49.49) (width 0.25) (layer B.Cu) (net 5))\u000a  (segment (start 118.2 47.81) (end 119.88 49.49) (width 0.25) (layer B.Cu) (net 5))\u000a  (segment (start 124.58 49.49) (end 125.25 50.16) (width 0.25) (layer F.Cu) (net 5))\u000a  (segment (start 120.815 49.49) (end 124.58 49.49) (width 0.25) (layer F.Cu) (net 5))\u000a  (segment (start 125.25 50.16) (end 125.17 53.27) (width 0.25) (layer F.Cu) (net 5))\u000a  (segment (start 125.14 50.03) (end 125.25 50.16) (width 0.25) (layer F.Cu) (net 5))\u000a  (segment (start 120.125 46.58) (end 120.125 47.58) (width 0.25) (layer F.Cu) (net 6))\u000a  (segment (start 121.22 45.485) (end 120.125 46.58) (width 0.25) (layer F.Cu) (net 6))\u000a  (segment (start 122.45 45.485) (end 121.22 45.485) (width 0.25) (layer F.Cu) (net 6))\u000a  (segment (start 122.75 45.785) (end 122.45 45.485) (width 0.25) (layer F.Cu) (net 6))\u000a  (segment (start 112.719999 47.874999) (end 111.97 47.125) (width 0.25) (layer F.Cu) (net 6))\u000a  (segment (start 113.500001 48.655001) (end 112.719999 47.874999) (width 0.25) (layer F.Cu) (net 6))\u000a  (segment (start 120.049999 48.655001) (end 113.500001 48.655001) (width 0.25) (layer F.Cu) (net 6))\u000a  (segment (start 120.125 48.58) (end 120.049999 48.655001) (width 0.25) (layer F.Cu) (net 6))\u000a  (segment (start 120.125 47.58) (end 120.125 48.58) (width 0.25) (layer F.Cu) (net 6))\u000a  (segment (start 129.8 55.51) (end 127.32 57.99) (width 0.25) (layer F.Cu) (net 6))\u000a  (segment (start 122.76 57.99) (end 120.09 55.32) (width 0.25) (layer F.Cu) (net 6))\u000a  (segment (start 127.32 57.99) (end 122.76 57.99) (width 0.25) (layer F.Cu) (net 6))\u000a  (segment (start 120.09 47.615) (end 120.125 47.58) (width 0.25) (layer F.Cu) (net 6))\u000a  (segment (start 120.09 55.32) (end 120.09 47.615) (width 0.25) (layer F.Cu) (net 6))\u000a  (via (at 121.2 43.95) (size 0.8) (drill 0.4) (layers F.Cu B.Cu) (net 13))\u000a  (segment (start 120.15 42.9) (end 121.2 43.95) (width 0.25) (layer F.Cu) (net 13))\u000a  (segment (start 120.15 42.675) (end 120.15 42.9) (width 0.25) (layer F.Cu) (net 13))\u000a  (segment (start 121.2 47.06) (end 121.1 47.16) (width 0.25) (layer B.Cu) (net 13))\u000a  (via (at 121.1 47.16) (size 0.8) (drill 0.4) (layers F.Cu B.Cu) (net 13))\u000a  (segment (start 121.2 43.95) (end 121.2 47.06) (width 0.25) (layer B.Cu) (net 13))\u000a  (segment (start 122.645 47.16) (end 122.75 47.055) (width 0.25) (layer F.Cu) (net 13))\u000a  (segment (start 121.1 47.16) (end 122.645 47.16) (width 0.25) (layer F.Cu) (net 13))\u000a  (segment (start 116.095 35.38) (end 117.07 35.38) (width 0.25) (layer F.Cu) (net 14) (tstamp 60729E62))\u000a  (segment (start 115.54 34.825) (end 116.095 35.38) (width 0.25) (layer F.Cu) (net 14) (tstamp 60729EA4))\u000a  (segment (start 115.54 33.15) (end 115.54 34.825) (width 0.25) (layer F.Cu) (net 14) (tstamp 60729FD0))\u000a  (via (at 125.95 43.35) (size 0.8) (drill 0.4) (layers F.Cu B.Cu) (net 16))\u000a  (segment (start 126.055 43.245) (end 125.95 43.35) (width 0.25) (layer F.Cu) (net 16))\u000a  (segment (start 127.7 43.245) (end 126.055 43.245) (width 0.25) (layer F.Cu) (net 16))\u000a  (segment (start 125.95 43.35) (end 122.312095 43.35) (width 0.25) (layer B.Cu) (net 16))\u000a  (via (at 112.663154 35.92846) (size 0.8) (drill 0.4) (layers F.Cu B.Cu) (net 16))\u000a  (segment (start 113.346615 35.244999) (end 112.663154 35.92846) (width 0.25) (layer B.Cu) (net 16))\u000a  (segment (start 114.207094 35.244999) (end 113.346615 35.244999) (width 0.25) (layer B.Cu) (net 16))\u000a  (segment (start 122.312095 43.35) (end 114.207094 35.244999) (width 0.25) (layer B.Cu) (net 16))\u000a  (segment (start 112.114694 35.38) (end 111.17 35.38) (width 0.25) (layer F.Cu) (net 16))\u000a  (segment (start 112.663154 35.92846) (end 112.114694 35.38) (width 0.25) (layer F.Cu) (net 16))\u000a  (via (at 113.73 35.97) (size 0.8) (drill 0.4) (layers F.Cu B.Cu) (net 17))\u000a  (segment (start 112.49 34.73) (end 113.73 35.97) (width 0.25) (layer F.Cu) (net 17))\u000a  (segment (start 111.17 34.73) (end 112.49 34.73) (width 0.25) (layer F.Cu) (net 17))\u000a  (segment (start 114.295685 35.97) (end 125.395685 47.07) (width 0.25) (layer B.Cu) (net 17))\u000a  (segment (start 113.73 35.97) (end 114.295685 35.97) (width 0.25) (layer B.Cu) (net 17))\u000a  (via (at 126.03 47.1) (size 0.8) (drill 0.4) (layers F.Cu B.Cu) (net 17))\u000a  (segment (start 126 47.07) (end 126.03 47.1) (width 0.25) (layer B.Cu) (net 17))\u000a  (segment (start 125.395685 47.07) (end 126 47.07) (width 0.25) (layer B.Cu) (net 17))\u000a  (segment (start 127.655 47.1) (end 127.7 47.055) (width 0.25) (layer F.Cu) (net 17))\u000a  (segment (start 126.03 47.1) (end 127.655 47.1) (width 0.25) (layer F.Cu) (net 17))\u000a  (segment (start 129.8 51.81) (end 129.84 51.77) (width 0.25) (layer F.Cu) (net 31))\u000a  (segment (start 129.8 54.06) (end 129.8 51.81) (width 0.25) (layer F.Cu) (net 31))\u000a\u000a)\u000a
p3
V405290f519ef45dca5da7001e790f508
p4
(dp5
V6074414E
p6
(lp7
VSheet6074414D
p8
aVcan_mcp2515.sch
p9
as(lp10
V/Sheet6074414D/can_l
p11
aVNet-(JP201-Pad1)
p12
aV/Sheet6074414D/can_h
p13
aV+5V
p14
aVNet-(R202-Pad1)
p15
aV/Sheet6074414D/can_spi_cs
p16
aV/Sheet6074414D/can_spi_miso
p17
aV/Sheet6074414D/can_spi_mosi
p18
aVNet-(U203-Pad15)
p19
aV/Sheet6074414D/can_spi_clk
p20
aV/Sheet6074414D/can_intr
p21
aVNet-(U203-Pad12)
p22
aVNet-(U203-Pad11)
p23
aVGND
p24
aVNet-(C204-Pad2)
p25
aVNet-(C203-Pad2)
p26
aVNet-(U203-Pad7)
p27
aVNet-(U203-Pad6)
p28
aVNet-(U203-Pad5)
p29
aVNet-(U203-Pad4)
p30
aVNet-(U203-Pad3)
p31
aV/Sheet6074414D/can_rx
p32
aV/Sheet6074414D/can_tx
p33
aVNet-(R201-Pad2)
p34
aVNet-(U202-Pad5)
p35
aVNet-(J201-Pad6)
p36
aVNet-(J201-Pad5)
p37
aVNet-(J201-Pad4)
p38
aVNet-(J201-Pad3)
p39
aVNet-(J201-Pad2)
p40
aVNet-(J201-Pad1)
p41
aV
p42
a(lp43
g8
a(lp44
g9
atp45
tp46
Rp47
.