ccopy_reg
_reconstructor
p0
(csave_restore_layout.save_restore_layout
LayoutData
p1
c__builtin__
tuple
p2
(V(kicad_pcb (version 20171130) (host pcbnew 5.1.5+dfsg1-2build2)\u000a\u000a  (general\u000a    (thickness 1.6)\u000a    (drawings 0)\u000a    (tracks 75)\u000a    (zones 0)\u000a    (modules 11)\u000a    (nets 10)\u000a  )\u000a\u000a  (page A4)\u000a  (layers\u000a    (0 F.Cu signal)\u000a    (31 B.Cu signal)\u000a    (32 B.Adhes user)\u000a    (33 F.Adhes user)\u000a    (34 B.Paste user)\u000a    (35 F.Paste user)\u000a    (36 B.SilkS user)\u000a    (37 F.SilkS user)\u000a    (38 B.Mask user)\u000a    (39 F.Mask user)\u000a    (40 Dwgs.User user)\u000a    (41 Cmts.User user)\u000a    (42 Eco1.User user)\u000a    (43 Eco2.User user)\u000a    (44 Edge.Cuts user)\u000a    (45 Margin user)\u000a    (46 B.CrtYd user)\u000a    (47 F.CrtYd user)\u000a    (48 B.Fab user)\u000a    (49 F.Fab user hide)\u000a  )\u000a\u000a  (setup\u000a    (last_trace_width 0.25)\u000a    (trace_clearance 0.2)\u000a    (zone_clearance 0.508)\u000a    (zone_45_only no)\u000a    (trace_min 0.2)\u000a    (via_size 0.8)\u000a    (via_drill 0.4)\u000a    (via_min_size 0.4)\u000a    (via_min_drill 0.3)\u000a    (uvia_size 0.3)\u000a    (uvia_drill 0.1)\u000a    (uvias_allowed no)\u000a    (uvia_min_size 0.2)\u000a    (uvia_min_drill 0.1)\u000a    (edge_width 0.05)\u000a    (segment_width 0.2)\u000a    (pcb_text_width 0.3)\u000a    (pcb_text_size 1.5 1.5)\u000a    (mod_edge_width 0.12)\u000a    (mod_text_size 0.6 0.6)\u000a    (mod_text_width 0.1)\u000a    (pad_size 1.524 1.524)\u000a    (pad_drill 0.762)\u000a    (pad_to_mask_clearance 0.051)\u000a    (solder_mask_min_width 0.25)\u000a    (aux_axis_origin 0 0)\u000a    (visible_elements FFFFFF7F)\u000a    (pcbplotparams\u000a      (layerselection 0x010fc_ffffffff)\u000a      (usegerberextensions false)\u000a      (usegerberattributes false)\u000a      (usegerberadvancedattributes false)\u000a      (creategerberjobfile false)\u000a      (excludeedgelayer true)\u000a      (linewidth 0.100000)\u000a      (plotframeref false)\u000a      (viasonmask false)\u000a      (mode 1)\u000a      (useauxorigin false)\u000a      (hpglpennumber 1)\u000a      (hpglpenspeed 20)\u000a      (hpglpendiameter 15.000000)\u000a      (psnegative false)\u000a      (psa4output false)\u000a      (plotreference true)\u000a      (plotvalue true)\u000a      (plotinvisibletext false)\u000a      (padsonsilk false)\u000a      (subtractmaskfromsilk false)\u000a      (outputformat 1)\u000a      (mirror false)\u000a      (drillshape 1)\u000a      (scaleselection 1)\u000a      (outputdirectory ""))\u000a  )\u000a\u000a  (net 0 "")\u000a  (net 1 GND)\u000a  (net 2 +5V)\u000a  (net 3 "Net-(J201-Pad2)")\u000a  (net 4 "Net-(J201-Pad1)")\u000a  (net 5 "Net-(JP201-Pad2)")\u000a  (net 6 /testestestest/Driver_in)\u000a  (net 7 /testestestest/Driver_enable)\u000a  (net 8 /testestestest/Reciever_enable)\u000a  (net 9 /testestestest/Reciever_out)\u000a\u000a  (net_class Default "This is the default net class."\u000a    (clearance 0.2)\u000a    (trace_width 0.25)\u000a    (via_dia 0.8)\u000a    (via_drill 0.4)\u000a    (uvia_dia 0.3)\u000a    (uvia_drill 0.1)\u000a    (add_net +5V)\u000a    (add_net /testestestest/Driver_enable)\u000a    (add_net /testestestest/Driver_in)\u000a    (add_net /testestestest/Reciever_enable)\u000a    (add_net /testestestest/Reciever_out)\u000a    (add_net GND)\u000a    (add_net "Net-(J201-Pad1)")\u000a    (add_net "Net-(J201-Pad2)")\u000a    (add_net "Net-(JP201-Pad2)")\u000a  )\u000a\u000a  (module Package_SO:SOP-8_3.9x4.9mm_P1.27mm (layer F.Cu) (tedit 5D9F72B1) (tstamp 606BF3FB)\u000a    (at 195.97 75.75)\u000a    (descr "SOP, 8 Pin (http://www.macronix.com/Lists/Datasheet/Attachments/7534/MX25R3235F,%20Wide%20Range,%2032Mb,%20v1.6.pdf#page=79), generated with kicad-footprint-generator ipc_gullwing_generator.py")\u000a    (tags "SOP SO")\u000a    (path /606F1EAE/606F5225)\u000a    (attr smd)\u000a    (fp_text reference U201 (at 0 -3.4) (layer F.SilkS)\u000a      (effects (font (size 0.6 0.6) (thickness 0.1)))\u000a    )\u000a    (fp_text value MAX485E (at 0 3.4) (layer F.Fab)\u000a      (effects (font (size 0.6 0.6) (thickness 0.1)))\u000a    )\u000a    (fp_text user %R (at 0 0) (layer F.Fab)\u000a      (effects (font (size 0.6 0.6) (thickness 0.1)))\u000a    )\u000a    (fp_line (start 3.7 -2.7) (end -3.7 -2.7) (layer F.CrtYd) (width 0.05))\u000a    (fp_line (start 3.7 2.7) (end 3.7 -2.7) (layer F.CrtYd) (width 0.05))\u000a    (fp_line (start -3.7 2.7) (end 3.7 2.7) (layer F.CrtYd) (width 0.05))\u000a    (fp_line (start -3.7 -2.7) (end -3.7 2.7) (layer F.CrtYd) (width 0.05))\u000a    (fp_line (start -1.95 -1.475) (end -0.975 -2.45) (layer F.Fab) (width 0.1))\u000a    (fp_line (start -1.95 2.45) (end -1.95 -1.475) (layer F.Fab) (width 0.1))\u000a    (fp_line (start 1.95 2.45) (end -1.95 2.45) (layer F.Fab) (width 0.1))\u000a    (fp_line (start 1.95 -2.45) (end 1.95 2.45) (layer F.Fab) (width 0.1))\u000a    (fp_line (start -0.975 -2.45) (end 1.95 -2.45) (layer F.Fab) (width 0.1))\u000a    (fp_line (start 0 -2.56) (end -3.45 -2.56) (layer F.SilkS) (width 0.12))\u000a    (fp_line (start 0 -2.56) (end 1.95 -2.56) (layer F.SilkS) (width 0.12))\u000a    (fp_line (start 0 2.56) (end -1.95 2.56) (layer F.SilkS) (width 0.12))\u000a    (fp_line (start 0 2.56) (end 1.95 2.56) (layer F.SilkS) (width 0.12))\u000a    (pad 8 smd roundrect (at 2.625 -1.905) (size 1.65 0.6) (layers F.Cu F.Paste F.Mask) (roundrect_rratio 0.25)\u000a      (net 2 +5V))\u000a    (pad 7 smd roundrect (at 2.625 -0.635) (size 1.65 0.6) (layers F.Cu F.Paste F.Mask) (roundrect_rratio 0.25)\u000a      (net 4 "Net-(J201-Pad1)"))\u000a    (pad 6 smd roundrect (at 2.625 0.635) (size 1.65 0.6) (layers F.Cu F.Paste F.Mask) (roundrect_rratio 0.25)\u000a      (net 3 "Net-(J201-Pad2)"))\u000a    (pad 5 smd roundrect (at 2.625 1.905) (size 1.65 0.6) (layers F.Cu F.Paste F.Mask) (roundrect_rratio 0.25)\u000a      (net 1 GND))\u000a    (pad 4 smd roundrect (at -2.625 1.905) (size 1.65 0.6) (layers F.Cu F.Paste F.Mask) (roundrect_rratio 0.25)\u000a      (net 6 /testestestest/Driver_in))\u000a    (pad 3 smd roundrect (at -2.625 0.635) (size 1.65 0.6) (layers F.Cu F.Paste F.Mask) (roundrect_rratio 0.25)\u000a      (net 7 /testestestest/Driver_enable))\u000a    (pad 2 smd roundrect (at -2.625 -0.635) (size 1.65 0.6) (layers F.Cu F.Paste F.Mask) (roundrect_rratio 0.25)\u000a      (net 8 /testestestest/Reciever_enable))\u000a    (pad 1 smd roundrect (at -2.625 -1.905) (size 1.65 0.6) (layers F.Cu F.Paste F.Mask) (roundrect_rratio 0.25)\u000a      (net 9 /testestestest/Reciever_out))\u000a    (model ${KISYS3DMOD}/Package_SO.3dshapes/SOP-8_3.9x4.9mm_P1.27mm.wrl\u000a      (at (xyz 0 0 0))\u000a      (scale (xyz 1 1 1))\u000a      (rotate (xyz 0 0 0))\u000a    )\u000a  )\u000a\u000a  (module Resistor_SMD:R_0603_1608Metric (layer F.Cu) (tedit 5B301BBD) (tstamp 606BF236)\u000a    (at 201.7 80.2)\u000a    (descr "Resistor SMD 0603 (1608 Metric), square (rectangular) end terminal, IPC_7351 nominal, (Body size source: http://www.tortai-tech.com/upload/download/2011102023233369053.pdf), generated with kicad-footprint-generator")\u000a    (tags resistor)\u000a    (path /606F1EAE/606F524D)\u000a    (attr smd)\u000a    (fp_text reference R207 (at 2 0 90) (layer F.SilkS)\u000a      (effects (font (size 0.6 0.6) (thickness 0.1)))\u000a    )\u000a    (fp_text value 20K (at 0 1.43) (layer F.Fab)\u000a      (effects (font (size 0.6 0.6) (thickness 0.1)))\u000a    )\u000a    (fp_text user %R (at 0 0) (layer F.Fab)\u000a      (effects (font (size 0.6 0.6) (thickness 0.1)))\u000a    )\u000a    (fp_line (start 1.48 0.73) (end -1.48 0.73) (layer F.CrtYd) (width 0.05))\u000a    (fp_line (start 1.48 -0.73) (end 1.48 0.73) (layer F.CrtYd) (width 0.05))\u000a    (fp_line (start -1.48 -0.73) (end 1.48 -0.73) (layer F.CrtYd) (width 0.05))\u000a    (fp_line (start -1.48 0.73) (end -1.48 -0.73) (layer F.CrtYd) (width 0.05))\u000a    (fp_line (start -0.162779 0.51) (end 0.162779 0.51) (layer F.SilkS) (width 0.12))\u000a    (fp_line (start -0.162779 -0.51) (end 0.162779 -0.51) (layer F.SilkS) (width 0.12))\u000a    (fp_line (start 0.8 0.4) (end -0.8 0.4) (layer F.Fab) (width 0.1))\u000a    (fp_line (start 0.8 -0.4) (end 0.8 0.4) (layer F.Fab) (width 0.1))\u000a    (fp_line (start -0.8 -0.4) (end 0.8 -0.4) (layer F.Fab) (width 0.1))\u000a    (fp_line (start -0.8 0.4) (end -0.8 -0.4) (layer F.Fab) (width 0.1))\u000a    (pad 2 smd roundrect (at 0.7875 0) (size 0.875 0.95) (layers F.Cu F.Paste F.Mask) (roundrect_rratio 0.25)\u000a      (net 2 +5V))\u000a    (pad 1 smd roundrect (at -0.7875 0) (size 0.875 0.95) (layers F.Cu F.Paste F.Mask) (roundrect_rratio 0.25)\u000a      (net 3 "Net-(J201-Pad2)"))\u000a    (model ${KISYS3DMOD}/Resistor_SMD.3dshapes/R_0603_1608Metric.wrl\u000a      (at (xyz 0 0 0))\u000a      (scale (xyz 1 1 1))\u000a      (rotate (xyz 0 0 0))\u000a    )\u000a  )\u000a\u000a  (module Resistor_SMD:R_0603_1608Metric (layer F.Cu) (tedit 5B301BBD) (tstamp 606BF225)\u000a    (at 201.8 71.9 180)\u000a    (descr "Resistor SMD 0603 (1608 Metric), square (rectangular) end terminal, IPC_7351 nominal, (Body size source: http://www.tortai-tech.com/upload/download/2011102023233369053.pdf), generated with kicad-footprint-generator")\u000a    (tags resistor)\u000a    (path /606F1EAE/606F5253)\u000a    (attr smd)\u000a    (fp_text reference R206 (at 0 1.2) (layer F.SilkS)\u000a      (effects (font (size 0.6 0.6) (thickness 0.1)))\u000a    )\u000a    (fp_text value 20K (at 0 1.43) (layer F.Fab)\u000a      (effects (font (size 0.6 0.6) (thickness 0.1)))\u000a    )\u000a    (fp_text user %R (at 0 0) (layer F.Fab)\u000a      (effects (font (size 0.6 0.6) (thickness 0.1)))\u000a    )\u000a    (fp_line (start 1.48 0.73) (end -1.48 0.73) (layer F.CrtYd) (width 0.05))\u000a    (fp_line (start 1.48 -0.73) (end 1.48 0.73) (layer F.CrtYd) (width 0.05))\u000a    (fp_line (start -1.48 -0.73) (end 1.48 -0.73) (layer F.CrtYd) (width 0.05))\u000a    (fp_line (start -1.48 0.73) (end -1.48 -0.73) (layer F.CrtYd) (width 0.05))\u000a    (fp_line (start -0.162779 0.51) (end 0.162779 0.51) (layer F.SilkS) (width 0.12))\u000a    (fp_line (start -0.162779 -0.51) (end 0.162779 -0.51) (layer F.SilkS) (width 0.12))\u000a    (fp_line (start 0.8 0.4) (end -0.8 0.4) (layer F.Fab) (width 0.1))\u000a    (fp_line (start 0.8 -0.4) (end 0.8 0.4) (layer F.Fab) (width 0.1))\u000a    (fp_line (start -0.8 -0.4) (end 0.8 -0.4) (layer F.Fab) (width 0.1))\u000a    (fp_line (start -0.8 0.4) (end -0.8 -0.4) (layer F.Fab) (width 0.1))\u000a    (pad 2 smd roundrect (at 0.7875 0 180) (size 0.875 0.95) (layers F.Cu F.Paste F.Mask) (roundrect_rratio 0.25)\u000a      (net 4 "Net-(J201-Pad1)"))\u000a    (pad 1 smd roundrect (at -0.7875 0 180) (size 0.875 0.95) (layers F.Cu F.Paste F.Mask) (roundrect_rratio 0.25)\u000a      (net 1 GND))\u000a    (model ${KISYS3DMOD}/Resistor_SMD.3dshapes/R_0603_1608Metric.wrl\u000a      (at (xyz 0 0 0))\u000a      (scale (xyz 1 1 1))\u000a      (rotate (xyz 0 0 0))\u000a    )\u000a  )\u000a\u000a  (module Resistor_SMD:R_0603_1608Metric (layer F.Cu) (tedit 5B301BBD) (tstamp 606BF214)\u000a    (at 201.7875 77.5 180)\u000a    (descr "Resistor SMD 0603 (1608 Metric), square (rectangular) end terminal, IPC_7351 nominal, (Body size source: http://www.tortai-tech.com/upload/download/2011102023233369053.pdf), generated with kicad-footprint-generator")\u000a    (tags resistor)\u000a    (path /606F1EAE/606F5233)\u000a    (attr smd)\u000a    (fp_text reference R205 (at 0 -1.43) (layer F.SilkS)\u000a      (effects (font (size 0.6 0.6) (thickness 0.1)))\u000a    )\u000a    (fp_text value 120R (at 0 1.43) (layer F.Fab)\u000a      (effects (font (size 0.6 0.6) (thickness 0.1)))\u000a    )\u000a    (fp_text user %R (at 0 0) (layer F.Fab)\u000a      (effects (font (size 0.6 0.6) (thickness 0.1)))\u000a    )\u000a    (fp_line (start 1.48 0.73) (end -1.48 0.73) (layer F.CrtYd) (width 0.05))\u000a    (fp_line (start 1.48 -0.73) (end 1.48 0.73) (layer F.CrtYd) (width 0.05))\u000a    (fp_line (start -1.48 -0.73) (end 1.48 -0.73) (layer F.CrtYd) (width 0.05))\u000a    (fp_line (start -1.48 0.73) (end -1.48 -0.73) (layer F.CrtYd) (width 0.05))\u000a    (fp_line (start -0.162779 0.51) (end 0.162779 0.51) (layer F.SilkS) (width 0.12))\u000a    (fp_line (start -0.162779 -0.51) (end 0.162779 -0.51) (layer F.SilkS) (width 0.12))\u000a    (fp_line (start 0.8 0.4) (end -0.8 0.4) (layer F.Fab) (width 0.1))\u000a    (fp_line (start 0.8 -0.4) (end 0.8 0.4) (layer F.Fab) (width 0.1))\u000a    (fp_line (start -0.8 -0.4) (end 0.8 -0.4) (layer F.Fab) (width 0.1))\u000a    (fp_line (start -0.8 0.4) (end -0.8 -0.4) (layer F.Fab) (width 0.1))\u000a    (pad 2 smd roundrect (at 0.7875 0 180) (size 0.875 0.95) (layers F.Cu F.Paste F.Mask) (roundrect_rratio 0.25)\u000a      (net 3 "Net-(J201-Pad2)"))\u000a    (pad 1 smd roundrect (at -0.7875 0 180) (size 0.875 0.95) (layers F.Cu F.Paste F.Mask) (roundrect_rratio 0.25)\u000a      (net 5 "Net-(JP201-Pad2)"))\u000a    (model ${KISYS3DMOD}/Resistor_SMD.3dshapes/R_0603_1608Metric.wrl\u000a      (at (xyz 0 0 0))\u000a      (scale (xyz 1 1 1))\u000a      (rotate (xyz 0 0 0))\u000a    )\u000a  )\u000a\u000a  (module Resistor_SMD:R_0603_1608Metric (layer F.Cu) (tedit 5B301BBD) (tstamp 606BF203)\u000a    (at 190.5 70.7125 270)\u000a    (descr "Resistor SMD 0603 (1608 Metric), square (rectangular) end terminal, IPC_7351 nominal, (Body size source: http://www.tortai-tech.com/upload/download/2011102023233369053.pdf), generated with kicad-footprint-generator")\u000a    (tags resistor)\u000a    (path /606F1EAE/606F5296)\u000a    (attr smd)\u000a    (fp_text reference R204 (at 1.9875 0 180) (layer F.SilkS)\u000a      (effects (font (size 0.6 0.6) (thickness 0.1)))\u000a    )\u000a    (fp_text value 10K (at 0 1.43 90) (layer F.Fab)\u000a      (effects (font (size 0.6 0.6) (thickness 0.1)))\u000a    )\u000a    (fp_text user %R (at 0 0 90) (layer F.Fab)\u000a      (effects (font (size 0.6 0.6) (thickness 0.1)))\u000a    )\u000a    (fp_line (start 1.48 0.73) (end -1.48 0.73) (layer F.CrtYd) (width 0.05))\u000a    (fp_line (start 1.48 -0.73) (end 1.48 0.73) (layer F.CrtYd) (width 0.05))\u000a    (fp_line (start -1.48 -0.73) (end 1.48 -0.73) (layer F.CrtYd) (width 0.05))\u000a    (fp_line (start -1.48 0.73) (end -1.48 -0.73) (layer F.CrtYd) (width 0.05))\u000a    (fp_line (start -0.162779 0.51) (end 0.162779 0.51) (layer F.SilkS) (width 0.12))\u000a    (fp_line (start -0.162779 -0.51) (end 0.162779 -0.51) (layer F.SilkS) (width 0.12))\u000a    (fp_line (start 0.8 0.4) (end -0.8 0.4) (layer F.Fab) (width 0.1))\u000a    (fp_line (start 0.8 -0.4) (end 0.8 0.4) (layer F.Fab) (width 0.1))\u000a    (fp_line (start -0.8 -0.4) (end 0.8 -0.4) (layer F.Fab) (width 0.1))\u000a    (fp_line (start -0.8 0.4) (end -0.8 -0.4) (layer F.Fab) (width 0.1))\u000a    (pad 2 smd roundrect (at 0.7875 0 270) (size 0.875 0.95) (layers F.Cu F.Paste F.Mask) (roundrect_rratio 0.25)\u000a      (net 9 /testestestest/Reciever_out))\u000a    (pad 1 smd roundrect (at -0.7875 0 270) (size 0.875 0.95) (layers F.Cu F.Paste F.Mask) (roundrect_rratio 0.25)\u000a      (net 2 +5V))\u000a    (model ${KISYS3DMOD}/Resistor_SMD.3dshapes/R_0603_1608Metric.wrl\u000a      (at (xyz 0 0 0))\u000a      (scale (xyz 1 1 1))\u000a      (rotate (xyz 0 0 0))\u000a    )\u000a  )\u000a\u000a  (module Resistor_SMD:R_0603_1608Metric (layer F.Cu) (tedit 5B301BBD) (tstamp 606BF1F2)\u000a    (at 188.9 70.7125 270)\u000a    (descr "Resistor SMD 0603 (1608 Metric), square (rectangular) end terminal, IPC_7351 nominal, (Body size source: http://www.tortai-tech.com/upload/download/2011102023233369053.pdf), generated with kicad-footprint-generator")\u000a    (tags resistor)\u000a    (path /606F1EAE/606F527C)\u000a    (attr smd)\u000a    (fp_text reference R203 (at -2.0125 0 180) (layer F.SilkS)\u000a      (effects (font (size 0.6 0.6) (thickness 0.1)))\u000a    )\u000a    (fp_text value 10K (at 0 1.43 90) (layer F.Fab)\u000a      (effects (font (size 0.6 0.6) (thickness 0.1)))\u000a    )\u000a    (fp_text user %R (at 0 0 90) (layer F.Fab)\u000a      (effects (font (size 0.6 0.6) (thickness 0.1)))\u000a    )\u000a    (fp_line (start 1.48 0.73) (end -1.48 0.73) (layer F.CrtYd) (width 0.05))\u000a    (fp_line (start 1.48 -0.73) (end 1.48 0.73) (layer F.CrtYd) (width 0.05))\u000a    (fp_line (start -1.48 -0.73) (end 1.48 -0.73) (layer F.CrtYd) (width 0.05))\u000a    (fp_line (start -1.48 0.73) (end -1.48 -0.73) (layer F.CrtYd) (width 0.05))\u000a    (fp_line (start -0.162779 0.51) (end 0.162779 0.51) (layer F.SilkS) (width 0.12))\u000a    (fp_line (start -0.162779 -0.51) (end 0.162779 -0.51) (layer F.SilkS) (width 0.12))\u000a    (fp_line (start 0.8 0.4) (end -0.8 0.4) (layer F.Fab) (width 0.1))\u000a    (fp_line (start 0.8 -0.4) (end 0.8 0.4) (layer F.Fab) (width 0.1))\u000a    (fp_line (start -0.8 -0.4) (end 0.8 -0.4) (layer F.Fab) (width 0.1))\u000a    (fp_line (start -0.8 0.4) (end -0.8 -0.4) (layer F.Fab) (width 0.1))\u000a    (pad 2 smd roundrect (at 0.7875 0 270) (size 0.875 0.95) (layers F.Cu F.Paste F.Mask) (roundrect_rratio 0.25)\u000a      (net 8 /testestestest/Reciever_enable))\u000a    (pad 1 smd roundrect (at -0.7875 0 270) (size 0.875 0.95) (layers F.Cu F.Paste F.Mask) (roundrect_rratio 0.25)\u000a      (net 2 +5V))\u000a    (model ${KISYS3DMOD}/Resistor_SMD.3dshapes/R_0603_1608Metric.wrl\u000a      (at (xyz 0 0 0))\u000a      (scale (xyz 1 1 1))\u000a      (rotate (xyz 0 0 0))\u000a    )\u000a  )\u000a\u000a  (module Resistor_SMD:R_0603_1608Metric (layer F.Cu) (tedit 5B301BBD) (tstamp 606BF1E1)\u000a    (at 187.3 70.7125 270)\u000a    (descr "Resistor SMD 0603 (1608 Metric), square (rectangular) end terminal, IPC_7351 nominal, (Body size source: http://www.tortai-tech.com/upload/download/2011102023233369053.pdf), generated with kicad-footprint-generator")\u000a    (tags resistor)\u000a    (path /606F1EAE/606F5282)\u000a    (attr smd)\u000a    (fp_text reference R202 (at 1.9875 0 180) (layer F.SilkS)\u000a      (effects (font (size 0.6 0.6) (thickness 0.1)))\u000a    )\u000a    (fp_text value 10K (at 0 1.43 90) (layer F.Fab)\u000a      (effects (font (size 0.6 0.6) (thickness 0.1)))\u000a    )\u000a    (fp_text user %R (at 0 0 90) (layer F.Fab)\u000a      (effects (font (size 0.6 0.6) (thickness 0.1)))\u000a    )\u000a    (fp_line (start 1.48 0.73) (end -1.48 0.73) (layer F.CrtYd) (width 0.05))\u000a    (fp_line (start 1.48 -0.73) (end 1.48 0.73) (layer F.CrtYd) (width 0.05))\u000a    (fp_line (start -1.48 -0.73) (end 1.48 -0.73) (layer F.CrtYd) (width 0.05))\u000a    (fp_line (start -1.48 0.73) (end -1.48 -0.73) (layer F.CrtYd) (width 0.05))\u000a    (fp_line (start -0.162779 0.51) (end 0.162779 0.51) (layer F.SilkS) (width 0.12))\u000a    (fp_line (start -0.162779 -0.51) (end 0.162779 -0.51) (layer F.SilkS) (width 0.12))\u000a    (fp_line (start 0.8 0.4) (end -0.8 0.4) (layer F.Fab) (width 0.1))\u000a    (fp_line (start 0.8 -0.4) (end 0.8 0.4) (layer F.Fab) (width 0.1))\u000a    (fp_line (start -0.8 -0.4) (end 0.8 -0.4) (layer F.Fab) (width 0.1))\u000a    (fp_line (start -0.8 0.4) (end -0.8 -0.4) (layer F.Fab) (width 0.1))\u000a    (pad 2 smd roundrect (at 0.7875 0 270) (size 0.875 0.95) (layers F.Cu F.Paste F.Mask) (roundrect_rratio 0.25)\u000a      (net 7 /testestestest/Driver_enable))\u000a    (pad 1 smd roundrect (at -0.7875 0 270) (size 0.875 0.95) (layers F.Cu F.Paste F.Mask) (roundrect_rratio 0.25)\u000a      (net 2 +5V))\u000a    (model ${KISYS3DMOD}/Resistor_SMD.3dshapes/R_0603_1608Metric.wrl\u000a      (at (xyz 0 0 0))\u000a      (scale (xyz 1 1 1))\u000a      (rotate (xyz 0 0 0))\u000a    )\u000a  )\u000a\u000a  (module Resistor_SMD:R_0603_1608Metric (layer F.Cu) (tedit 5B301BBD) (tstamp 606BF1D0)\u000a    (at 185.7 70.7125 270)\u000a    (descr "Resistor SMD 0603 (1608 Metric), square (rectangular) end terminal, IPC_7351 nominal, (Body size source: http://www.tortai-tech.com/upload/download/2011102023233369053.pdf), generated with kicad-footprint-generator")\u000a    (tags resistor)\u000a    (path /606F1EAE/606F5288)\u000a    (attr smd)\u000a    (fp_text reference R201 (at -2.0125 0 180) (layer F.SilkS)\u000a      (effects (font (size 0.6 0.6) (thickness 0.1)))\u000a    )\u000a    (fp_text value 10K (at 0 1.43 90) (layer F.Fab)\u000a      (effects (font (size 0.6 0.6) (thickness 0.1)))\u000a    )\u000a    (fp_text user %R (at 0 0 90) (layer F.Fab)\u000a      (effects (font (size 0.6 0.6) (thickness 0.1)))\u000a    )\u000a    (fp_line (start 1.48 0.73) (end -1.48 0.73) (layer F.CrtYd) (width 0.05))\u000a    (fp_line (start 1.48 -0.73) (end 1.48 0.73) (layer F.CrtYd) (width 0.05))\u000a    (fp_line (start -1.48 -0.73) (end 1.48 -0.73) (layer F.CrtYd) (width 0.05))\u000a    (fp_line (start -1.48 0.73) (end -1.48 -0.73) (layer F.CrtYd) (width 0.05))\u000a    (fp_line (start -0.162779 0.51) (end 0.162779 0.51) (layer F.SilkS) (width 0.12))\u000a    (fp_line (start -0.162779 -0.51) (end 0.162779 -0.51) (layer F.SilkS) (width 0.12))\u000a    (fp_line (start 0.8 0.4) (end -0.8 0.4) (layer F.Fab) (width 0.1))\u000a    (fp_line (start 0.8 -0.4) (end 0.8 0.4) (layer F.Fab) (width 0.1))\u000a    (fp_line (start -0.8 -0.4) (end 0.8 -0.4) (layer F.Fab) (width 0.1))\u000a    (fp_line (start -0.8 0.4) (end -0.8 -0.4) (layer F.Fab) (width 0.1))\u000a    (pad 2 smd roundrect (at 0.7875 0 270) (size 0.875 0.95) (layers F.Cu F.Paste F.Mask) (roundrect_rratio 0.25)\u000a      (net 6 /testestestest/Driver_in))\u000a    (pad 1 smd roundrect (at -0.7875 0 270) (size 0.875 0.95) (layers F.Cu F.Paste F.Mask) (roundrect_rratio 0.25)\u000a      (net 2 +5V))\u000a    (model ${KISYS3DMOD}/Resistor_SMD.3dshapes/R_0603_1608Metric.wrl\u000a      (at (xyz 0 0 0))\u000a      (scale (xyz 1 1 1))\u000a      (rotate (xyz 0 0 0))\u000a    )\u000a  )\u000a\u000a  (module Jumper:SolderJumper-2_P1.3mm_Open_TrianglePad1.0x1.5mm (layer F.Cu) (tedit 5A64794F) (tstamp 606BF1BF)\u000a    (at 201.875 75)\u000a    (descr "SMD Solder Jumper, 1x1.5mm Triangular Pads, 0.3mm gap, open")\u000a    (tags "solder jumper open")\u000a    (path /606F1EAE/606F522B)\u000a    (attr virtual)\u000a    (fp_text reference JP201 (at 0 -1.8) (layer F.SilkS)\u000a      (effects (font (size 0.6 0.6) (thickness 0.1)))\u000a    )\u000a    (fp_text value "bus terminator" (at 0 1.9) (layer F.Fab)\u000a      (effects (font (size 0.6 0.6) (thickness 0.1)))\u000a    )\u000a    (fp_line (start 1.65 1.25) (end -1.65 1.25) (layer F.CrtYd) (width 0.05))\u000a    (fp_line (start 1.65 1.25) (end 1.65 -1.25) (layer F.CrtYd) (width 0.05))\u000a    (fp_line (start -1.65 -1.25) (end -1.65 1.25) (layer F.CrtYd) (width 0.05))\u000a    (fp_line (start -1.65 -1.25) (end 1.65 -1.25) (layer F.CrtYd) (width 0.05))\u000a    (fp_line (start -1.4 -1) (end 1.4 -1) (layer F.SilkS) (width 0.12))\u000a    (fp_line (start 1.4 -1) (end 1.4 1) (layer F.SilkS) (width 0.12))\u000a    (fp_line (start 1.4 1) (end -1.4 1) (layer F.SilkS) (width 0.12))\u000a    (fp_line (start -1.4 1) (end -1.4 -1) (layer F.SilkS) (width 0.12))\u000a    (pad 1 smd custom (at -0.725 0) (size 0.3 0.3) (layers F.Cu F.Mask)\u000a      (net 4 "Net-(J201-Pad1)") (zone_connect 2)\u000a      (options (clearance outline) (anchor rect))\u000a      (primitives\u000a        (gr_poly (pts\u000a           (xy -0.5 -0.75) (xy 0.5 -0.75) (xy 1 0) (xy 0.5 0.75) (xy -0.5 0.75)\u000a) (width 0))\u000a      ))\u000a    (pad 2 smd custom (at 0.725 0) (size 0.3 0.3) (layers F.Cu F.Mask)\u000a      (net 5 "Net-(JP201-Pad2)") (zone_connect 2)\u000a      (options (clearance outline) (anchor rect))\u000a      (primitives\u000a        (gr_poly (pts\u000a           (xy -0.65 -0.75) (xy 0.5 -0.75) (xy 0.5 0.75) (xy -0.65 0.75) (xy -0.15 0)\u000a) (width 0))\u000a      ))\u000a  )\u000a\u000a  (module TerminalBlock_Phoenix:TerminalBlock_Phoenix_MKDS-3-4-5.08_1x04_P5.08mm_Horizontal (layer F.Cu) (tedit 5B294F11) (tstamp 606BF1B1)\u000a    (at 211.6 65.1 270)\u000a    (descr "Terminal Block Phoenix MKDS-3-4-5.08, 4 pins, pitch 5.08mm, size 20.3x11.2mm^2, drill diamater 1.3mm, pad diameter 2.6mm, see http://www.farnell.com/datasheets/2138224.pdf, script-generated using https://github.com/pointhi/kicad-footprint-generator/scripts/TerminalBlock_Phoenix")\u000a    (tags "THT Terminal Block Phoenix MKDS-3-4-5.08 pitch 5.08mm size 20.3x11.2mm^2 drill 1.3mm pad 2.6mm")\u000a    (path /606F1EAE/606F526C)\u000a    (fp_text reference J201 (at 7.62 -6.96 90) (layer F.SilkS)\u000a      (effects (font (size 0.6 0.6) (thickness 0.1)))\u000a    )\u000a    (fp_text value "RS485 out" (at 7.62 6.36 90) (layer F.Fab)\u000a      (effects (font (size 0.6 0.6) (thickness 0.1)))\u000a    )\u000a    (fp_text user %R (at 7.62 3.1 90) (layer F.Fab)\u000a      (effects (font (size 0.6 0.6) (thickness 0.1)))\u000a    )\u000a    (fp_line (start 18.28 -6.4) (end -3.04 -6.4) (layer F.CrtYd) (width 0.05))\u000a    (fp_line (start 18.28 5.8) (end 18.28 -6.4) (layer F.CrtYd) (width 0.05))\u000a    (fp_line (start -3.04 5.8) (end 18.28 5.8) (layer F.CrtYd) (width 0.05))\u000a    (fp_line (start -3.04 -6.4) (end -3.04 5.8) (layer F.CrtYd) (width 0.05))\u000a    (fp_line (start -2.84 5.6) (end -2.34 5.6) (layer F.SilkS) (width 0.12))\u000a    (fp_line (start -2.84 4.86) (end -2.84 5.6) (layer F.SilkS) (width 0.12))\u000a    (fp_line (start 13.982 0.992) (end 13.587 1.388) (layer F.SilkS) (width 0.12))\u000a    (fp_line (start 16.628 -1.654) (end 16.248 -1.274) (layer F.SilkS) (width 0.12))\u000a    (fp_line (start 14.233 1.274) (end 13.853 1.654) (layer F.SilkS) (width 0.12))\u000a    (fp_line (start 16.894 -1.388) (end 16.499 -0.992) (layer F.SilkS) (width 0.12))\u000a    (fp_line (start 16.513 -1.517) (end 13.724 1.273) (layer F.Fab) (width 0.1))\u000a    (fp_line (start 16.757 -1.273) (end 13.968 1.517) (layer F.Fab) (width 0.1))\u000a    (fp_line (start 8.902 0.992) (end 8.507 1.388) (layer F.SilkS) (width 0.12))\u000a    (fp_line (start 11.548 -1.654) (end 11.168 -1.274) (layer F.SilkS) (width 0.12))\u000a    (fp_line (start 9.153 1.274) (end 8.773 1.654) (layer F.SilkS) (width 0.12))\u000a    (fp_line (start 11.814 -1.388) (end 11.419 -0.992) (layer F.SilkS) (width 0.12))\u000a    (fp_line (start 11.433 -1.517) (end 8.644 1.273) (layer F.Fab) (width 0.1))\u000a    (fp_line (start 11.677 -1.273) (end 8.888 1.517) (layer F.Fab) (width 0.1))\u000a    (fp_line (start 3.822 0.992) (end 3.427 1.388) (layer F.SilkS) (width 0.12))\u000a    (fp_line (start 6.468 -1.654) (end 6.088 -1.274) (layer F.SilkS) (width 0.12))\u000a    (fp_line (start 4.073 1.274) (end 3.693 1.654) (layer F.SilkS) (width 0.12))\u000a    (fp_line (start 6.734 -1.388) (end 6.339 -0.992) (layer F.SilkS) (width 0.12))\u000a    (fp_line (start 6.353 -1.517) (end 3.564 1.273) (layer F.Fab) (width 0.1))\u000a    (fp_line (start 6.597 -1.273) (end 3.808 1.517) (layer F.Fab) (width 0.1))\u000a    (fp_line (start -1.548 1.281) (end -1.654 1.388) (layer F.SilkS) (width 0.12))\u000a    (fp_line (start 1.388 -1.654) (end 1.281 -1.547) (layer F.SilkS) (width 0.12))\u000a    (fp_line (start -1.282 1.547) (end -1.388 1.654) (layer F.SilkS) (width 0.12))\u000a    (fp_line (start 1.654 -1.388) (end 1.547 -1.281) (layer F.SilkS) (width 0.12))\u000a    (fp_line (start 1.273 -1.517) (end -1.517 1.273) (layer F.Fab) (width 0.1))\u000a    (fp_line (start 1.517 -1.273) (end -1.273 1.517) (layer F.Fab) (width 0.1))\u000a    (fp_line (start 17.84 -5.96) (end 17.84 5.36) (layer F.SilkS) (width 0.12))\u000a    (fp_line (start -2.6 -5.96) (end -2.6 5.36) (layer F.SilkS) (width 0.12))\u000a    (fp_line (start -2.6 5.36) (end 17.84 5.36) (layer F.SilkS) (width 0.12))\u000a    (fp_line (start -2.6 -5.96) (end 17.84 -5.96) (layer F.SilkS) (width 0.12))\u000a    (fp_line (start -2.6 -3.9) (end 17.84 -3.9) (layer F.SilkS) (width 0.12))\u000a    (fp_line (start -2.54 -3.9) (end 17.78 -3.9) (layer F.Fab) (width 0.1))\u000a    (fp_line (start -2.6 2.3) (end 17.84 2.3) (layer F.SilkS) (width 0.12))\u000a    (fp_line (start -2.54 2.3) (end 17.78 2.3) (layer F.Fab) (width 0.1))\u000a    (fp_line (start -2.6 4.8) (end 17.84 4.8) (layer F.SilkS) (width 0.12))\u000a    (fp_line (start -2.54 4.8) (end 17.78 4.8) (layer F.Fab) (width 0.1))\u000a    (fp_line (start -2.54 4.8) (end -2.54 -5.9) (layer F.Fab) (width 0.1))\u000a    (fp_line (start -2.04 5.3) (end -2.54 4.8) (layer F.Fab) (width 0.1))\u000a    (fp_line (start 17.78 5.3) (end -2.04 5.3) (layer F.Fab) (width 0.1))\u000a    (fp_line (start 17.78 -5.9) (end 17.78 5.3) (layer F.Fab) (width 0.1))\u000a    (fp_line (start -2.54 -5.9) (end 17.78 -5.9) (layer F.Fab) (width 0.1))\u000a    (fp_circle (center 15.24 0) (end 17.42 0) (layer F.SilkS) (width 0.12))\u000a    (fp_circle (center 15.24 0) (end 17.24 0) (layer F.Fab) (width 0.1))\u000a    (fp_circle (center 10.16 0) (end 12.34 0) (layer F.SilkS) (width 0.12))\u000a    (fp_circle (center 10.16 0) (end 12.16 0) (layer F.Fab) (width 0.1))\u000a    (fp_circle (center 5.08 0) (end 7.26 0) (layer F.SilkS) (width 0.12))\u000a    (fp_circle (center 5.08 0) (end 7.08 0) (layer F.Fab) (width 0.1))\u000a    (fp_circle (center 0 0) (end 2.18 0) (layer F.SilkS) (width 0.12))\u000a    (fp_circle (center 0 0) (end 2 0) (layer F.Fab) (width 0.1))\u000a    (pad 4 thru_hole circle (at 15.24 0 270) (size 2.6 2.6) (drill 1.3) (layers *.Cu *.Mask)\u000a      (net 3 "Net-(J201-Pad2)"))\u000a    (pad 3 thru_hole circle (at 10.16 0 270) (size 2.6 2.6) (drill 1.3) (layers *.Cu *.Mask)\u000a      (net 4 "Net-(J201-Pad1)"))\u000a    (pad 2 thru_hole circle (at 5.08 0 270) (size 2.6 2.6) (drill 1.3) (layers *.Cu *.Mask)\u000a      (net 3 "Net-(J201-Pad2)"))\u000a    (pad 1 thru_hole rect (at 0 0 270) (size 2.6 2.6) (drill 1.3) (layers *.Cu *.Mask)\u000a      (net 4 "Net-(J201-Pad1)"))\u000a    (model ${KISYS3DMOD}/TerminalBlock_Phoenix.3dshapes/TerminalBlock_Phoenix_MKDS-3-4-5.08_1x04_P5.08mm_Horizontal.wrl\u000a      (at (xyz 0 0 0))\u000a      (scale (xyz 1 1 1))\u000a      (rotate (xyz 0 0 0))\u000a    )\u000a  )\u000a\u000a  (module Capacitor_SMD:C_0201_0603Metric (layer F.Cu) (tedit 5B301BBE) (tstamp 606BF173)\u000a    (at 195.88 79)\u000a    (descr "Capacitor SMD 0201 (0603 Metric), square (rectangular) end terminal, IPC_7351 nominal, (Body size source: https://www.vishay.com/docs/20052/crcw0201e3.pdf), generated with kicad-footprint-generator")\u000a    (tags capacitor)\u000a    (path /606F1EAE/606F64A9)\u000a    (attr smd)\u000a    (fp_text reference C201 (at -0.08 0.9) (layer F.SilkS)\u000a      (effects (font (size 0.6 0.6) (thickness 0.1)))\u000a    )\u000a    (fp_text value 100nf (at 0 1.05) (layer F.Fab)\u000a      (effects (font (size 0.6 0.6) (thickness 0.1)))\u000a    )\u000a    (fp_text user %R (at 0 -0.68) (layer F.Fab)\u000a      (effects (font (size 0.6 0.6) (thickness 0.1)))\u000a    )\u000a    (fp_line (start 0.7 0.35) (end -0.7 0.35) (layer F.CrtYd) (width 0.05))\u000a    (fp_line (start 0.7 -0.35) (end 0.7 0.35) (layer F.CrtYd) (width 0.05))\u000a    (fp_line (start -0.7 -0.35) (end 0.7 -0.35) (layer F.CrtYd) (width 0.05))\u000a    (fp_line (start -0.7 0.35) (end -0.7 -0.35) (layer F.CrtYd) (width 0.05))\u000a    (fp_line (start 0.3 0.15) (end -0.3 0.15) (layer F.Fab) (width 0.1))\u000a    (fp_line (start 0.3 -0.15) (end 0.3 0.15) (layer F.Fab) (width 0.1))\u000a    (fp_line (start -0.3 -0.15) (end 0.3 -0.15) (layer F.Fab) (width 0.1))\u000a    (fp_line (start -0.3 0.15) (end -0.3 -0.15) (layer F.Fab) (width 0.1))\u000a    (pad 2 smd roundrect (at 0.32 0) (size 0.46 0.4) (layers F.Cu F.Mask) (roundrect_rratio 0.25)\u000a      (net 1 GND))\u000a    (pad 1 smd roundrect (at -0.32 0) (size 0.46 0.4) (layers F.Cu F.Mask) (roundrect_rratio 0.25)\u000a      (net 2 +5V))\u000a    (pad "" smd roundrect (at 0.345 0) (size 0.318 0.36) (layers F.Paste) (roundrect_rratio 0.25))\u000a    (pad "" smd roundrect (at -0.345 0) (size 0.318 0.36) (layers F.Paste) (roundrect_rratio 0.25))\u000a    (model ${KISYS3DMOD}/Capacitor_SMD.3dshapes/C_0201_0603Metric.wrl\u000a      (at (xyz 0 0 0))\u000a      (scale (xyz 1 1 1))\u000a      (rotate (xyz 0 0 0))\u000a    )\u000a  )\u000a\u000a  (segment (start 197.25 79) (end 198.595 77.655) (width 0.25) (layer F.Cu) (net 1))\u000a  (segment (start 196.2 79) (end 197.25 79) (width 0.25) (layer F.Cu) (net 1))\u000a  (segment (start 197.44499 75.461758) (end 197.44499 74.17001) (width 0.25) (layer F.Cu) (net 2))\u000a  (segment (start 197.723242 75.74001) (end 197.44499 75.461758) (width 0.25) (layer F.Cu) (net 2))\u000a  (segment (start 197.44499 74.17001) (end 197.77 73.845) (width 0.25) (layer F.Cu) (net 2))\u000a  (segment (start 199.446778 75.74001) (end 197.723242 75.74001) (width 0.25) (layer F.Cu) (net 2))\u000a  (segment (start 199.781778 76.07501) (end 199.446778 75.74001) (width 0.25) (layer F.Cu) (net 2))\u000a  (segment (start 200.819004 76.07501) (end 199.781778 76.07501) (width 0.25) (layer F.Cu) (net 2))\u000a  (segment (start 201.76251 77.018516) (end 200.819004 76.07501) (width 0.25) (layer F.Cu) (net 2))\u000a  (segment (start 201.76251 79.91251) (end 201.76251 77.018516) (width 0.25) (layer F.Cu) (net 2))\u000a  (segment (start 202.05 80.2) (end 201.76251 79.91251) (width 0.25) (layer F.Cu) (net 2))\u000a  (segment (start 202.4875 80.2) (end 202.05 80.2) (width 0.25) (layer F.Cu) (net 2))\u000a  (segment (start 198.345 73.845) (end 198.595 73.845) (width 0.25) (layer F.Cu) (net 2))\u000a  (segment (start 197.77 73.845) (end 198.345 73.845) (width 0.25) (layer F.Cu) (net 2))\u000a  (segment (start 185.7 69.925) (end 187.3 69.925) (width 0.25) (layer F.Cu) (net 2))\u000a  (segment (start 187.3 69.925) (end 188.9 69.925) (width 0.25) (layer F.Cu) (net 2))\u000a  (segment (start 188.9 69.925) (end 190.5 69.925) (width 0.25) (layer F.Cu) (net 2))\u000a  (segment (start 190.975 69.925) (end 193 71.95) (width 0.25) (layer F.Cu) (net 2))\u000a  (segment (start 190.5 69.925) (end 190.975 69.925) (width 0.25) (layer F.Cu) (net 2))\u000a  (segment (start 193 71.95) (end 193.15 71.95) (width 0.25) (layer F.Cu) (net 2))\u000a  (segment (start 195.045 73.845) (end 198.595 73.845) (width 0.25) (layer F.Cu) (net 2))\u000a  (segment (start 193.15 71.95) (end 195.045 73.845) (width 0.25) (layer F.Cu) (net 2))\u000a  (segment (start 195.64499 77.261758) (end 197.44499 75.461758) (width 0.25) (layer F.Cu) (net 2))\u000a  (segment (start 195.6 79) (end 195.64499 78.95501) (width 0.25) (layer F.Cu) (net 2))\u000a  (segment (start 195.64499 78.95501) (end 195.64499 77.261758) (width 0.25) (layer F.Cu) (net 2))\u000a  (segment (start 195.56 79) (end 195.6 79) (width 0.25) (layer F.Cu) (net 2))\u000a  (segment (start 201 80.1125) (end 200.9125 80.2) (width 0.25) (layer F.Cu) (net 3))\u000a  (segment (start 201 77.5) (end 201 80.1125) (width 0.25) (layer F.Cu) (net 3))\u000a  (segment (start 212.899999 79.040001) (end 211.6 80.34) (width 0.25) (layer B.Cu) (net 3))\u000a  (segment (start 213.225001 78.714999) (end 212.899999 79.040001) (width 0.25) (layer B.Cu) (net 3))\u000a  (segment (start 213.225001 71.805001) (end 213.225001 78.714999) (width 0.25) (layer B.Cu) (net 3))\u000a  (segment (start 211.6 70.18) (end 213.225001 71.805001) (width 0.25) (layer B.Cu) (net 3))\u000a  (segment (start 201 77.025) (end 201 77.5) (width 0.25) (layer F.Cu) (net 3))\u000a  (segment (start 200.66 76.685) (end 201 77.025) (width 0.25) (layer F.Cu) (net 3))\u000a  (segment (start 198.895 76.685) (end 200.66 76.685) (width 0.25) (layer F.Cu) (net 3))\u000a  (segment (start 198.595 76.385) (end 198.895 76.685) (width 0.25) (layer F.Cu) (net 3))\u000a  (segment (start 210.300001 81.639999) (end 211.6 80.34) (width 0.25) (layer F.Cu) (net 3))\u000a  (segment (start 201.877499 81.639999) (end 210.300001 81.639999) (width 0.25) (layer F.Cu) (net 3))\u000a  (segment (start 200.9125 80.675) (end 201.877499 81.639999) (width 0.25) (layer F.Cu) (net 3))\u000a  (segment (start 200.9125 80.2) (end 200.9125 80.675) (width 0.25) (layer F.Cu) (net 3))\u000a  (segment (start 201.035 75.115) (end 201.15 75) (width 0.25) (layer F.Cu) (net 4))\u000a  (segment (start 198.595 75.115) (end 201.035 75.115) (width 0.25) (layer F.Cu) (net 4))\u000a  (segment (start 201.15 72.0375) (end 201.0125 71.9) (width 0.25) (layer F.Cu) (net 4))\u000a  (segment (start 201.15 75) (end 201.15 72.0375) (width 0.25) (layer F.Cu) (net 4))\u000a  (segment (start 210.26499 73.92499) (end 210.300001 73.960001) (width 0.25) (layer F.Cu) (net 4))\u000a  (segment (start 201.47501 73.92499) (end 210.26499 73.92499) (width 0.25) (layer F.Cu) (net 4))\u000a  (segment (start 201.15 74.25) (end 201.47501 73.92499) (width 0.25) (layer F.Cu) (net 4))\u000a  (segment (start 210.300001 73.960001) (end 211.6 75.26) (width 0.25) (layer F.Cu) (net 4))\u000a  (segment (start 201.15 75) (end 201.15 74.25) (width 0.25) (layer F.Cu) (net 4))\u000a  (segment (start 213.15 65.1) (end 211.6 65.1) (width 0.25) (layer F.Cu) (net 4))\u000a  (segment (start 213.225001 65.175001) (end 213.15 65.1) (width 0.25) (layer F.Cu) (net 4))\u000a  (segment (start 213.225001 73.634999) (end 213.225001 65.175001) (width 0.25) (layer F.Cu) (net 4))\u000a  (segment (start 211.6 75.26) (end 213.225001 73.634999) (width 0.25) (layer F.Cu) (net 4))\u000a  (segment (start 202.575 75.025) (end 202.6 75) (width 0.25) (layer F.Cu) (net 5))\u000a  (segment (start 202.575 77.5) (end 202.575 75.025) (width 0.25) (layer F.Cu) (net 5))\u000a  (via (at 188.323647 75.858545) (size 0.8) (drill 0.4) (layers F.Cu B.Cu) (net 6))\u000a  (segment (start 190.120102 77.655) (end 188.323647 75.858545) (width 0.25) (layer F.Cu) (net 6))\u000a  (segment (start 193.345 77.655) (end 190.120102 77.655) (width 0.25) (layer F.Cu) (net 6))\u000a  (segment (start 185.7 73.234898) (end 188.323647 75.858545) (width 0.25) (layer F.Cu) (net 6))\u000a  (segment (start 185.7 71.5) (end 185.7 73.234898) (width 0.25) (layer F.Cu) (net 6))\u000a  (via (at 189.053892 75.175356) (size 0.8) (drill 0.4) (layers F.Cu B.Cu) (net 7))\u000a  (segment (start 190.263536 76.385) (end 189.053892 75.175356) (width 0.25) (layer F.Cu) (net 7))\u000a  (segment (start 193.345 76.385) (end 190.263536 76.385) (width 0.25) (layer F.Cu) (net 7))\u000a  (segment (start 188.653893 74.775357) (end 189.053892 75.175356) (width 0.25) (layer F.Cu) (net 7))\u000a  (segment (start 187.3 73.421464) (end 188.653893 74.775357) (width 0.25) (layer F.Cu) (net 7))\u000a  (segment (start 187.3 71.5) (end 187.3 73.421464) (width 0.25) (layer F.Cu) (net 7))\u000a  (via (at 189.731777 74.440186) (size 0.8) (drill 0.4) (layers F.Cu B.Cu) (net 8))\u000a  (segment (start 190.406591 75.115) (end 189.731777 74.440186) (width 0.25) (layer F.Cu) (net 8))\u000a  (segment (start 193.345 75.115) (end 190.406591 75.115) (width 0.25) (layer F.Cu) (net 8))\u000a  (segment (start 188.9 73.608409) (end 189.731777 74.440186) (width 0.25) (layer F.Cu) (net 8))\u000a  (segment (start 188.9 71.5) (end 188.9 73.608409) (width 0.25) (layer F.Cu) (net 8))\u000a  (via (at 190.5 73.8) (size 0.8) (drill 0.4) (layers F.Cu B.Cu) (net 9))\u000a  (segment (start 190.545 73.845) (end 190.5 73.8) (width 0.25) (layer F.Cu) (net 9))\u000a  (segment (start 193.345 73.845) (end 190.545 73.845) (width 0.25) (layer F.Cu) (net 9))\u000a  (segment (start 190.5 71.5) (end 190.5 73.8) (width 0.25) (layer F.Cu) (net 9))\u000a\u000a)\u000a
p3
Vb5bc0729bba1393c9262f981ad0150fc
p4
(dp5
V606F1EAE
p6
(lp7
Vtestestestest
p8
aVMAX485.sch
p9
as(lp10
V+5V
p11
aVNet-(J201-Pad1)
p12
aVNet-(J201-Pad2)
p13
aVGND
p14
aV/testestestest/Driver_in
p15
aV/testestestest/Driver_enable
p16
aV/testestestest/Reciever_enable
p17
aV/testestestest/Reciever_out
p18
aVNet-(JP201-Pad2)
p19
aV
p20
a(lp21
g8
a(lp22
g9
atp23
tp24
Rp25
.